
lcd_spi.elf:     file format elf32-littlearm

Sections:
Idx Name          Size      VMA       LMA       File off  Algn
  0 .text         00001904  10001000  10001000  00001000  2**2
                  CONTENTS, ALLOC, LOAD, READONLY, CODE
  1 .VENEER_Code  00000144  2000000c  10002904  0000800c  2**2
                  CONTENTS, ALLOC, LOAD, READONLY, CODE
  2 Stack         00000400  20000150  00000000  00000150  2**0
                  ALLOC
  3 .data         00000098  20000550  10002a48  00008550  2**2
                  CONTENTS, ALLOC, LOAD, DATA
  4 .bss          00000168  200005e8  00000498  000085e8  2**2
                  ALLOC
  5 .no_init      00000004  20003ffc  00003eac  00000150  2**2
                  ALLOC
  6 .debug_frame  00000310  00000000  00000000  000085e8  2**2
                  CONTENTS, READONLY, DEBUGGING
  7 .build_attributes 000006b5  00000000  00000000  000088f8  2**0
                  CONTENTS, READONLY

Disassembly of section .text:

10001000 <__Vectors>:
10001000:	50 05 00 20 1d 10 00 10 00 00 00 00 9d 10 00 10     P.. ............
10001010:	00 18 04 00 00 01 00 00 00 00 00 80                 ............

1000101c <Reset_Handler>:
1000101c:	4911      	ldr	r1, [pc, #68]	; (10001064 <__copy_data+0xe>)
1000101e:	4a12      	ldr	r2, [pc, #72]	; (10001068 <__copy_data+0x12>)
10001020:	4b12      	ldr	r3, [pc, #72]	; (1000106c <__copy_data+0x16>)
10001022:	f000 f818 	bl	10001056 <__copy_data>
10001026:	4812      	ldr	r0, [pc, #72]	; (10001070 <__copy_data+0x1a>)
10001028:	4780      	blx	r0
1000102a:	4912      	ldr	r1, [pc, #72]	; (10001074 <__copy_data+0x1e>)
1000102c:	4a12      	ldr	r2, [pc, #72]	; (10001078 <__copy_data+0x22>)
1000102e:	4b13      	ldr	r3, [pc, #76]	; (1000107c <__copy_data+0x26>)
10001030:	f000 f811 	bl	10001056 <__copy_data>
10001034:	4912      	ldr	r1, [pc, #72]	; (10001080 <__copy_data+0x2a>)
10001036:	4a13      	ldr	r2, [pc, #76]	; (10001084 <__copy_data+0x2e>)
10001038:	4b13      	ldr	r3, [pc, #76]	; (10001088 <__copy_data+0x32>)
1000103a:	f000 f80c 	bl	10001056 <__copy_data>
1000103e:	4913      	ldr	r1, [pc, #76]	; (1000108c <__copy_data+0x36>)
10001040:	4a13      	ldr	r2, [pc, #76]	; (10001090 <__copy_data+0x3a>)
10001042:	2000      	movs	r0, #0
10001044:	1a52      	subs	r2, r2, r1
10001046:	dd02      	ble.n	1000104e <Reset_Handler+0x32>
10001048:	3a04      	subs	r2, #4
1000104a:	5088      	str	r0, [r1, r2]
1000104c:	dcfc      	bgt.n	10001048 <Reset_Handler+0x2c>
1000104e:	4811      	ldr	r0, [pc, #68]	; (10001094 <__copy_data+0x3e>)
10001050:	4780      	blx	r0
10001052:	4811      	ldr	r0, [pc, #68]	; (10001098 <__copy_data+0x42>)
10001054:	4780      	blx	r0

10001056 <__copy_data>:
10001056:	1a9b      	subs	r3, r3, r2
10001058:	dd03      	ble.n	10001062 <__copy_data+0xc>
1000105a:	3b04      	subs	r3, #4
1000105c:	58c8      	ldr	r0, [r1, r3]
1000105e:	50d0      	str	r0, [r2, r3]
10001060:	dcfb      	bgt.n	1000105a <__copy_data+0x4>
10001062:	4770      	bx	lr
10001064:	10002904 	.word	0x10002904
10001068:	2000000c 	.word	0x2000000c
1000106c:	20000150 	.word	0x20000150
10001070:	10001115 	.word	0x10001115
10001074:	10002a48 	.word	0x10002a48
10001078:	20000550 	.word	0x20000550
1000107c:	200005e8 	.word	0x200005e8
10001080:	10002ae0 	.word	0x10002ae0
10001084:	200005e8 	.word	0x200005e8
10001088:	200005e8 	.word	0x200005e8
1000108c:	200005e8 	.word	0x200005e8
10001090:	2000074c 	.word	0x2000074c
10001094:	10001f7d 	.word	0x10001f7d
10001098:	10001f0d 	.word	0x10001f0d

1000109c <HardFault_Handler>:
1000109c:	e7fe      	b.n	1000109c <HardFault_Handler>
	...

100010a0 <SystemCoreClockUpdate>:
100010a0:	b5f8      	push	{r3, r4, r5, r6, r7, lr}
100010a2:	4f16      	ldr	r7, [pc, #88]	; (100010fc <SystemCoreClockUpdate+0x5c>)
100010a4:	4e16      	ldr	r6, [pc, #88]	; (10001100 <SystemCoreClockUpdate+0x60>)
100010a6:	683b      	ldr	r3, [r7, #0]
100010a8:	4c16      	ldr	r4, [pc, #88]	; (10001104 <SystemCoreClockUpdate+0x64>)
100010aa:	041b      	lsls	r3, r3, #16
100010ac:	0e1b      	lsrs	r3, r3, #24
100010ae:	6033      	str	r3, [r6, #0]
100010b0:	d01a      	beq.n	100010e8 <SystemCoreClockUpdate+0x48>
100010b2:	2203      	movs	r2, #3
100010b4:	6838      	ldr	r0, [r7, #0]
100010b6:	69f9      	ldr	r1, [r7, #28]
100010b8:	b2c0      	uxtb	r0, r0
100010ba:	400a      	ands	r2, r1
100010bc:	0212      	lsls	r2, r2, #8
100010be:	4d12      	ldr	r5, [pc, #72]	; (10001108 <SystemCoreClockUpdate+0x68>)
100010c0:	4302      	orrs	r2, r0
100010c2:	602a      	str	r2, [r5, #0]
100010c4:	69f9      	ldr	r1, [r7, #28]
100010c6:	0589      	lsls	r1, r1, #22
100010c8:	d403      	bmi.n	100010d2 <SystemCoreClockUpdate+0x32>
100010ca:	029b      	lsls	r3, r3, #10
100010cc:	1899      	adds	r1, r3, r2
100010ce:	480f      	ldr	r0, [pc, #60]	; (1000110c <SystemCoreClockUpdate+0x6c>)
100010d0:	e006      	b.n	100010e0 <SystemCoreClockUpdate+0x40>
100010d2:	f000 feeb 	bl	10001eac <OSCHP_GetFrequency>
100010d6:	6831      	ldr	r1, [r6, #0]
100010d8:	682b      	ldr	r3, [r5, #0]
100010da:	0289      	lsls	r1, r1, #10
100010dc:	0180      	lsls	r0, r0, #6
100010de:	18c9      	adds	r1, r1, r3
100010e0:	f000 f97e 	bl	100013e0 <__aeabi_uidiv>
100010e4:	0100      	lsls	r0, r0, #4
100010e6:	e007      	b.n	100010f8 <SystemCoreClockUpdate+0x58>
100010e8:	69fb      	ldr	r3, [r7, #28]
100010ea:	059b      	lsls	r3, r3, #22
100010ec:	d402      	bmi.n	100010f4 <SystemCoreClockUpdate+0x54>
100010ee:	4b08      	ldr	r3, [pc, #32]	; (10001110 <SystemCoreClockUpdate+0x70>)
100010f0:	6023      	str	r3, [r4, #0]
100010f2:	e002      	b.n	100010fa <SystemCoreClockUpdate+0x5a>
100010f4:	f000 feda 	bl	10001eac <OSCHP_GetFrequency>
100010f8:	6020      	str	r0, [r4, #0]
100010fa:	bdf8      	pop	{r3, r4, r5, r6, r7, pc}
100010fc:	40010300 	.word	0x40010300
10001100:	200005ec 	.word	0x200005ec
10001104:	20003ffc 	.word	0x20003ffc
10001108:	200005e8 	.word	0x200005e8
1000110c:	b71b0000 	.word	0xb71b0000
10001110:	02dc6c00 	.word	0x02dc6c00

10001114 <SystemInit>:
10001114:	b508      	push	{r3, lr}
10001116:	f000 feb9 	bl	10001e8c <SystemCoreSetup>
1000111a:	f000 fecb 	bl	10001eb4 <SystemCoreClockSetup>
1000111e:	bd08      	pop	{r3, pc}

10001120 <XMC_GPIO_Init>:
10001120:	b5f7      	push	{r0, r1, r2, r4, r5, r6, r7, lr}
10001122:	2503      	movs	r5, #3
10001124:	1c0c      	adds	r4, r1, #0
10001126:	402c      	ands	r4, r5
10001128:	40ac      	lsls	r4, r5
1000112a:	9401      	str	r4, [sp, #4]
1000112c:	24fc      	movs	r4, #252	; 0xfc
1000112e:	9e01      	ldr	r6, [sp, #4]
10001130:	088b      	lsrs	r3, r1, #2
10001132:	40b4      	lsls	r4, r6
10001134:	009b      	lsls	r3, r3, #2
10001136:	18c3      	adds	r3, r0, r3
10001138:	691f      	ldr	r7, [r3, #16]
1000113a:	2604      	movs	r6, #4
1000113c:	43a7      	bics	r7, r4
1000113e:	611f      	str	r7, [r3, #16]
10001140:	004f      	lsls	r7, r1, #1
10001142:	40bd      	lsls	r5, r7
10001144:	6f44      	ldr	r4, [r0, #116]	; 0x74
10001146:	43ac      	bics	r4, r5
10001148:	2507      	movs	r5, #7
1000114a:	400d      	ands	r5, r1
1000114c:	00ad      	lsls	r5, r5, #2
1000114e:	40ae      	lsls	r6, r5
10001150:	6744      	str	r4, [r0, #116]	; 0x74
10001152:	08cc      	lsrs	r4, r1, #3
10001154:	00a4      	lsls	r4, r4, #2
10001156:	1904      	adds	r4, r0, r4
10001158:	6c27      	ldr	r7, [r4, #64]	; 0x40
1000115a:	43b7      	bics	r7, r6
1000115c:	6427      	str	r7, [r4, #64]	; 0x40
1000115e:	7856      	ldrb	r6, [r2, #1]
10001160:	6c27      	ldr	r7, [r4, #64]	; 0x40
10001162:	40ae      	lsls	r6, r5
10001164:	1c35      	adds	r5, r6, #0
10001166:	433d      	orrs	r5, r7
10001168:	6425      	str	r5, [r4, #64]	; 0x40
1000116a:	4c0a      	ldr	r4, [pc, #40]	; (10001194 <XMC_GPIO_Init+0x74>)
1000116c:	42a0      	cmp	r0, r4
1000116e:	d104      	bne.n	1000117a <XMC_GPIO_Init+0x5a>
10001170:	2501      	movs	r5, #1
10001172:	408d      	lsls	r5, r1
10001174:	6e04      	ldr	r4, [r0, #96]	; 0x60
10001176:	43ac      	bics	r4, r5
10001178:	6604      	str	r4, [r0, #96]	; 0x60
1000117a:	7814      	ldrb	r4, [r2, #0]
1000117c:	b265      	sxtb	r5, r4
1000117e:	2d00      	cmp	r5, #0
10001180:	da02      	bge.n	10001188 <XMC_GPIO_Init+0x68>
10001182:	6852      	ldr	r2, [r2, #4]
10001184:	408a      	lsls	r2, r1
10001186:	6042      	str	r2, [r0, #4]
10001188:	9901      	ldr	r1, [sp, #4]
1000118a:	691a      	ldr	r2, [r3, #16]
1000118c:	408c      	lsls	r4, r1
1000118e:	4314      	orrs	r4, r2
10001190:	611c      	str	r4, [r3, #16]
10001192:	bdf7      	pop	{r0, r1, r2, r4, r5, r6, r7, pc}
10001194:	40040200 	.word	0x40040200

10001198 <XMC_SCU_UnlockProtectedBits>:
10001198:	22c0      	movs	r2, #192	; 0xc0
1000119a:	4b03      	ldr	r3, [pc, #12]	; (100011a8 <XMC_SCU_UnlockProtectedBits+0x10>)
1000119c:	625a      	str	r2, [r3, #36]	; 0x24
1000119e:	6a5a      	ldr	r2, [r3, #36]	; 0x24
100011a0:	0752      	lsls	r2, r2, #29
100011a2:	d4fc      	bmi.n	1000119e <XMC_SCU_UnlockProtectedBits+0x6>
100011a4:	4770      	bx	lr
100011a6:	46c0      	nop			; (mov r8, r8)
100011a8:	40010000 	.word	0x40010000

100011ac <XMC_SCU_CLOCK_UngatePeripheralClock>:
100011ac:	b510      	push	{r4, lr}
100011ae:	1c04      	adds	r4, r0, #0
100011b0:	f7ff fff2 	bl	10001198 <XMC_SCU_UnlockProtectedBits>
100011b4:	4b05      	ldr	r3, [pc, #20]	; (100011cc <XMC_SCU_CLOCK_UngatePeripheralClock+0x20>)
100011b6:	6918      	ldr	r0, [r3, #16]
100011b8:	4320      	orrs	r0, r4
100011ba:	6118      	str	r0, [r3, #16]
100011bc:	681a      	ldr	r2, [r3, #0]
100011be:	0052      	lsls	r2, r2, #1
100011c0:	d4fc      	bmi.n	100011bc <XMC_SCU_CLOCK_UngatePeripheralClock+0x10>
100011c2:	22c3      	movs	r2, #195	; 0xc3
100011c4:	4b02      	ldr	r3, [pc, #8]	; (100011d0 <XMC_SCU_CLOCK_UngatePeripheralClock+0x24>)
100011c6:	625a      	str	r2, [r3, #36]	; 0x24
100011c8:	bd10      	pop	{r4, pc}
100011ca:	46c0      	nop			; (mov r8, r8)
100011cc:	40010300 	.word	0x40010300
100011d0:	40010000 	.word	0x40010000

100011d4 <XMC_SCU_CLOCK_IsPeripheralClockGated>:
100011d4:	4b03      	ldr	r3, [pc, #12]	; (100011e4 <XMC_SCU_CLOCK_IsPeripheralClockGated+0x10>)
100011d6:	689b      	ldr	r3, [r3, #8]
100011d8:	4018      	ands	r0, r3
100011da:	1e43      	subs	r3, r0, #1
100011dc:	4198      	sbcs	r0, r3
100011de:	b2c0      	uxtb	r0, r0
100011e0:	4770      	bx	lr
100011e2:	46c0      	nop			; (mov r8, r8)
100011e4:	40010300 	.word	0x40010300

100011e8 <XMC_SCU_CLOCK_ScaleMCLKFrequency>:
100011e8:	b5f8      	push	{r3, r4, r5, r6, r7, lr}
100011ea:	1c0d      	adds	r5, r1, #0
100011ec:	2603      	movs	r6, #3
100011ee:	1c04      	adds	r4, r0, #0
100011f0:	f7ff ffd2 	bl	10001198 <XMC_SCU_UnlockProtectedBits>
100011f4:	4b22      	ldr	r3, [pc, #136]	; (10001280 <XMC_SCU_CLOCK_ScaleMCLKFrequency+0x98>)
100011f6:	0a28      	lsrs	r0, r5, #8
100011f8:	681a      	ldr	r2, [r3, #0]
100011fa:	69d9      	ldr	r1, [r3, #28]
100011fc:	b2ed      	uxtb	r5, r5
100011fe:	43b1      	bics	r1, r6
10001200:	4301      	orrs	r1, r0
10001202:	61d9      	str	r1, [r3, #28]
10001204:	6818      	ldr	r0, [r3, #0]
10001206:	491f      	ldr	r1, [pc, #124]	; (10001284 <XMC_SCU_CLOCK_ScaleMCLKFrequency+0x9c>)
10001208:	0412      	lsls	r2, r2, #16
1000120a:	4001      	ands	r1, r0
1000120c:	481e      	ldr	r0, [pc, #120]	; (10001288 <XMC_SCU_CLOCK_ScaleMCLKFrequency+0xa0>)
1000120e:	0e12      	lsrs	r2, r2, #24
10001210:	4301      	orrs	r1, r0
10001212:	430d      	orrs	r5, r1
10001214:	601d      	str	r5, [r3, #0]
10001216:	6819      	ldr	r1, [r3, #0]
10001218:	0049      	lsls	r1, r1, #1
1000121a:	d4fc      	bmi.n	10001216 <XMC_SCU_CLOCK_ScaleMCLKFrequency+0x2e>
1000121c:	4d1b      	ldr	r5, [pc, #108]	; (1000128c <XMC_SCU_CLOCK_ScaleMCLKFrequency+0xa4>)
1000121e:	00a6      	lsls	r6, r4, #2
10001220:	42a2      	cmp	r2, r4
10001222:	d81a      	bhi.n	1000125a <XMC_SCU_CLOCK_ScaleMCLKFrequency+0x72>
10001224:	0091      	lsls	r1, r2, #2
10001226:	42a1      	cmp	r1, r4
10001228:	d20d      	bcs.n	10001246 <XMC_SCU_CLOCK_ScaleMCLKFrequency+0x5e>
1000122a:	2a00      	cmp	r2, #0
1000122c:	d100      	bne.n	10001230 <XMC_SCU_CLOCK_ScaleMCLKFrequency+0x48>
1000122e:	3201      	adds	r2, #1
10001230:	6819      	ldr	r1, [r3, #0]
10001232:	0092      	lsls	r2, r2, #2
10001234:	4029      	ands	r1, r5
10001236:	4301      	orrs	r1, r0
10001238:	0216      	lsls	r6, r2, #8
1000123a:	4331      	orrs	r1, r6
1000123c:	6019      	str	r1, [r3, #0]
1000123e:	6819      	ldr	r1, [r3, #0]
10001240:	0049      	lsls	r1, r1, #1
10001242:	d4fc      	bmi.n	1000123e <XMC_SCU_CLOCK_ScaleMCLKFrequency+0x56>
10001244:	e7ee      	b.n	10001224 <XMC_SCU_CLOCK_ScaleMCLKFrequency+0x3c>
10001246:	681a      	ldr	r2, [r3, #0]
10001248:	0224      	lsls	r4, r4, #8
1000124a:	402a      	ands	r2, r5
1000124c:	4310      	orrs	r0, r2
1000124e:	4320      	orrs	r0, r4
10001250:	6018      	str	r0, [r3, #0]
10001252:	e00c      	b.n	1000126e <XMC_SCU_CLOCK_ScaleMCLKFrequency+0x86>
10001254:	6819      	ldr	r1, [r3, #0]
10001256:	0049      	lsls	r1, r1, #1
10001258:	d4fc      	bmi.n	10001254 <XMC_SCU_CLOCK_ScaleMCLKFrequency+0x6c>
1000125a:	42b2      	cmp	r2, r6
1000125c:	d9f3      	bls.n	10001246 <XMC_SCU_CLOCK_ScaleMCLKFrequency+0x5e>
1000125e:	6819      	ldr	r1, [r3, #0]
10001260:	0892      	lsrs	r2, r2, #2
10001262:	4029      	ands	r1, r5
10001264:	4301      	orrs	r1, r0
10001266:	0217      	lsls	r7, r2, #8
10001268:	4339      	orrs	r1, r7
1000126a:	6019      	str	r1, [r3, #0]
1000126c:	e7f2      	b.n	10001254 <XMC_SCU_CLOCK_ScaleMCLKFrequency+0x6c>
1000126e:	681a      	ldr	r2, [r3, #0]
10001270:	0052      	lsls	r2, r2, #1
10001272:	d4fc      	bmi.n	1000126e <XMC_SCU_CLOCK_ScaleMCLKFrequency+0x86>
10001274:	22c3      	movs	r2, #195	; 0xc3
10001276:	4b06      	ldr	r3, [pc, #24]	; (10001290 <XMC_SCU_CLOCK_ScaleMCLKFrequency+0xa8>)
10001278:	625a      	str	r2, [r3, #36]	; 0x24
1000127a:	f7ff ff11 	bl	100010a0 <SystemCoreClockUpdate>
1000127e:	bdf8      	pop	{r3, r4, r5, r6, r7, pc}
10001280:	40010300 	.word	0x40010300
10001284:	c00fff00 	.word	0xc00fff00
10001288:	3ff00000 	.word	0x3ff00000
1000128c:	c00f00ff 	.word	0xc00f00ff
10001290:	40010000 	.word	0x40010000

10001294 <XMC_SCU_CLOCK_Init>:
10001294:	b538      	push	{r3, r4, r5, lr}
10001296:	1c04      	adds	r4, r0, #0
10001298:	f7ff ff7e 	bl	10001198 <XMC_SCU_UnlockProtectedBits>
1000129c:	79a2      	ldrb	r2, [r4, #6]
1000129e:	4d2c      	ldr	r5, [pc, #176]	; (10001350 <XMC_SCU_CLOCK_Init+0xbc>)
100012a0:	2a30      	cmp	r2, #48	; 0x30
100012a2:	d02f      	beq.n	10001304 <XMC_SCU_CLOCK_Init+0x70>
100012a4:	f000 fe02 	bl	10001eac <OSCHP_GetFrequency>
100012a8:	4b2a      	ldr	r3, [pc, #168]	; (10001354 <XMC_SCU_CLOCK_Init+0xc0>)
100012aa:	4298      	cmp	r0, r3
100012ac:	d903      	bls.n	100012b6 <XMC_SCU_CLOCK_Init+0x22>
100012ae:	2240      	movs	r2, #64	; 0x40
100012b0:	882b      	ldrh	r3, [r5, #0]
100012b2:	4313      	orrs	r3, r2
100012b4:	802b      	strh	r3, [r5, #0]
100012b6:	2232      	movs	r2, #50	; 0x32
100012b8:	882b      	ldrh	r3, [r5, #0]
100012ba:	4393      	bics	r3, r2
100012bc:	79a2      	ldrb	r2, [r4, #6]
100012be:	4313      	orrs	r3, r2
100012c0:	802b      	strh	r3, [r5, #0]
100012c2:	2302      	movs	r3, #2
100012c4:	4924      	ldr	r1, [pc, #144]	; (10001358 <XMC_SCU_CLOCK_Init+0xc4>)
100012c6:	4a25      	ldr	r2, [pc, #148]	; (1000135c <XMC_SCU_CLOCK_Init+0xc8>)
100012c8:	628b      	str	r3, [r1, #40]	; 0x28
100012ca:	4b25      	ldr	r3, [pc, #148]	; (10001360 <XMC_SCU_CLOCK_Init+0xcc>)
100012cc:	6958      	ldr	r0, [r3, #20]
100012ce:	4002      	ands	r2, r0
100012d0:	1c18      	adds	r0, r3, #0
100012d2:	615a      	str	r2, [r3, #20]
100012d4:	4a23      	ldr	r2, [pc, #140]	; (10001364 <XMC_SCU_CLOCK_Init+0xd0>)
100012d6:	3a01      	subs	r2, #1
100012d8:	2a00      	cmp	r2, #0
100012da:	d001      	beq.n	100012e0 <XMC_SCU_CLOCK_Init+0x4c>
100012dc:	46c0      	nop			; (mov r8, r8)
100012de:	e7fa      	b.n	100012d6 <XMC_SCU_CLOCK_Init+0x42>
100012e0:	25c0      	movs	r5, #192	; 0xc0
100012e2:	695a      	ldr	r2, [r3, #20]
100012e4:	04ad      	lsls	r5, r5, #18
100012e6:	432a      	orrs	r2, r5
100012e8:	615a      	str	r2, [r3, #20]
100012ea:	6943      	ldr	r3, [r0, #20]
100012ec:	01db      	lsls	r3, r3, #7
100012ee:	d4fc      	bmi.n	100012ea <XMC_SCU_CLOCK_Init+0x56>
100012f0:	4b1d      	ldr	r3, [pc, #116]	; (10001368 <XMC_SCU_CLOCK_Init+0xd4>)
100012f2:	3b01      	subs	r3, #1
100012f4:	2b00      	cmp	r3, #0
100012f6:	d001      	beq.n	100012fc <XMC_SCU_CLOCK_Init+0x68>
100012f8:	46c0      	nop			; (mov r8, r8)
100012fa:	e7fa      	b.n	100012f2 <XMC_SCU_CLOCK_Init+0x5e>
100012fc:	6a0b      	ldr	r3, [r1, #32]
100012fe:	079b      	lsls	r3, r3, #30
10001300:	d4df      	bmi.n	100012c2 <XMC_SCU_CLOCK_Init+0x2e>
10001302:	e002      	b.n	1000130a <XMC_SCU_CLOCK_Init+0x76>
10001304:	882b      	ldrh	r3, [r5, #0]
10001306:	4313      	orrs	r3, r2
10001308:	802b      	strh	r3, [r5, #0]
1000130a:	79e3      	ldrb	r3, [r4, #7]
1000130c:	4a17      	ldr	r2, [pc, #92]	; (1000136c <XMC_SCU_CLOCK_Init+0xd8>)
1000130e:	b299      	uxth	r1, r3
10001310:	8011      	strh	r1, [r2, #0]
10001312:	2b00      	cmp	r3, #0
10001314:	d105      	bne.n	10001322 <XMC_SCU_CLOCK_Init+0x8e>
10001316:	4b16      	ldr	r3, [pc, #88]	; (10001370 <XMC_SCU_CLOCK_Init+0xdc>)
10001318:	3b01      	subs	r3, #1
1000131a:	2b00      	cmp	r3, #0
1000131c:	d001      	beq.n	10001322 <XMC_SCU_CLOCK_Init+0x8e>
1000131e:	46c0      	nop			; (mov r8, r8)
10001320:	e7fa      	b.n	10001318 <XMC_SCU_CLOCK_Init+0x84>
10001322:	490f      	ldr	r1, [pc, #60]	; (10001360 <XMC_SCU_CLOCK_Init+0xcc>)
10001324:	4a13      	ldr	r2, [pc, #76]	; (10001374 <XMC_SCU_CLOCK_Init+0xe0>)
10001326:	69cb      	ldr	r3, [r1, #28]
10001328:	88a0      	ldrh	r0, [r4, #4]
1000132a:	4013      	ands	r3, r2
1000132c:	4303      	orrs	r3, r0
1000132e:	68e2      	ldr	r2, [r4, #12]
10001330:	68a0      	ldr	r0, [r4, #8]
10001332:	61cb      	str	r3, [r1, #28]
10001334:	680b      	ldr	r3, [r1, #0]
10001336:	4310      	orrs	r0, r2
10001338:	4a0f      	ldr	r2, [pc, #60]	; (10001378 <XMC_SCU_CLOCK_Init+0xe4>)
1000133a:	4013      	ands	r3, r2
1000133c:	22c3      	movs	r2, #195	; 0xc3
1000133e:	4303      	orrs	r3, r0
10001340:	600b      	str	r3, [r1, #0]
10001342:	4b0e      	ldr	r3, [pc, #56]	; (1000137c <XMC_SCU_CLOCK_Init+0xe8>)
10001344:	625a      	str	r2, [r3, #36]	; 0x24
10001346:	78a0      	ldrb	r0, [r4, #2]
10001348:	8821      	ldrh	r1, [r4, #0]
1000134a:	f7ff ff4d 	bl	100011e8 <XMC_SCU_CLOCK_ScaleMCLKFrequency>
1000134e:	bd38      	pop	{r3, r4, r5, pc}
10001350:	40011090 	.word	0x40011090
10001354:	01312d00 	.word	0x01312d00
10001358:	40010038 	.word	0x40010038
1000135c:	fdffffff 	.word	0xfdffffff
10001360:	40010300 	.word	0x40010300
10001364:	0000021a 	.word	0x0000021a
10001368:	00000a7d 	.word	0x00000a7d
1000136c:	4001108c 	.word	0x4001108c
10001370:	00632ea0 	.word	0x00632ea0
10001374:	fffffdff 	.word	0xfffffdff
10001378:	fff0ffff 	.word	0xfff0ffff
1000137c:	40010000 	.word	0x40010000

10001380 <XMC_SCU_CLOCK_GetPeripheralClockFrequency>:
10001380:	4b01      	ldr	r3, [pc, #4]	; (10001388 <XMC_SCU_CLOCK_GetPeripheralClockFrequency+0x8>)
10001382:	6818      	ldr	r0, [r3, #0]
10001384:	4770      	bx	lr
10001386:	46c0      	nop			; (mov r8, r8)
10001388:	20003ffc 	.word	0x20003ffc

1000138c <XMC_SCU_SetInterruptControl>:
1000138c:	2303      	movs	r3, #3
1000138e:	b530      	push	{r4, r5, lr}
10001390:	4019      	ands	r1, r3
10001392:	4a0b      	ldr	r2, [pc, #44]	; (100013c0 <XMC_SCU_SetInterruptControl+0x34>)
10001394:	280f      	cmp	r0, #15
10001396:	d808      	bhi.n	100013aa <XMC_SCU_SetInterruptControl+0x1e>
10001398:	0040      	lsls	r0, r0, #1
1000139a:	4081      	lsls	r1, r0
1000139c:	4083      	lsls	r3, r0
1000139e:	1c08      	adds	r0, r1, #0
100013a0:	6ed4      	ldr	r4, [r2, #108]	; 0x6c
100013a2:	439c      	bics	r4, r3
100013a4:	4320      	orrs	r0, r4
100013a6:	66d0      	str	r0, [r2, #108]	; 0x6c
100013a8:	e009      	b.n	100013be <XMC_SCU_SetInterruptControl+0x32>
100013aa:	240f      	movs	r4, #15
100013ac:	4020      	ands	r0, r4
100013ae:	0044      	lsls	r4, r0, #1
100013b0:	40a1      	lsls	r1, r4
100013b2:	40a3      	lsls	r3, r4
100013b4:	1c08      	adds	r0, r1, #0
100013b6:	6f15      	ldr	r5, [r2, #112]	; 0x70
100013b8:	439d      	bics	r5, r3
100013ba:	4328      	orrs	r0, r5
100013bc:	6710      	str	r0, [r2, #112]	; 0x70
100013be:	bd30      	pop	{r4, r5, pc}
100013c0:	40010000 	.word	0x40010000

100013c4 <XMC_GPIO_SetHardwareControl>:
100013c4:	b510      	push	{r4, lr}
100013c6:	2403      	movs	r4, #3
100013c8:	0049      	lsls	r1, r1, #1
100013ca:	408a      	lsls	r2, r1
100013cc:	408c      	lsls	r4, r1
100013ce:	1c11      	adds	r1, r2, #0
100013d0:	6f43      	ldr	r3, [r0, #116]	; 0x74
100013d2:	43a3      	bics	r3, r4
100013d4:	6743      	str	r3, [r0, #116]	; 0x74
100013d6:	6f43      	ldr	r3, [r0, #116]	; 0x74
100013d8:	4319      	orrs	r1, r3
100013da:	6741      	str	r1, [r0, #116]	; 0x74
100013dc:	bd10      	pop	{r4, pc}
	...

100013e0 <__aeabi_uidiv>:
100013e0:	b510      	push	{r4, lr}
100013e2:	f3ef 8210 	mrs	r2, PRIMASK
100013e6:	b672      	cpsid	i
100013e8:	2404      	movs	r4, #4
100013ea:	4b04      	ldr	r3, [pc, #16]	; (100013fc <__aeabi_uidiv+0x1c>)
100013ec:	635c      	str	r4, [r3, #52]	; 0x34
100013ee:	6218      	str	r0, [r3, #32]
100013f0:	6259      	str	r1, [r3, #36]	; 0x24
100013f2:	6a98      	ldr	r0, [r3, #40]	; 0x28
100013f4:	f382 8810 	msr	PRIMASK, r2
100013f8:	bd10      	pop	{r4, pc}
100013fa:	46c0      	nop			; (mov r8, r8)
100013fc:	40030000 	.word	0x40030000

10001400 <__aeabi_idiv>:
10001400:	b510      	push	{r4, lr}
10001402:	f3ef 8210 	mrs	r2, PRIMASK
10001406:	b672      	cpsid	i
10001408:	2400      	movs	r4, #0
1000140a:	4b04      	ldr	r3, [pc, #16]	; (1000141c <__aeabi_idiv+0x1c>)
1000140c:	635c      	str	r4, [r3, #52]	; 0x34
1000140e:	6218      	str	r0, [r3, #32]
10001410:	6259      	str	r1, [r3, #36]	; 0x24
10001412:	6a98      	ldr	r0, [r3, #40]	; 0x28
10001414:	f382 8810 	msr	PRIMASK, r2
10001418:	bd10      	pop	{r4, pc}
1000141a:	46c0      	nop			; (mov r8, r8)
1000141c:	40030000 	.word	0x40030000

10001420 <__aeabi_uidivmod>:
10001420:	b510      	push	{r4, lr}
10001422:	f3ef 8210 	mrs	r2, PRIMASK
10001426:	b672      	cpsid	i
10001428:	2404      	movs	r4, #4
1000142a:	4b04      	ldr	r3, [pc, #16]	; (1000143c <__aeabi_uidivmod+0x1c>)
1000142c:	635c      	str	r4, [r3, #52]	; 0x34
1000142e:	6218      	str	r0, [r3, #32]
10001430:	6259      	str	r1, [r3, #36]	; 0x24
10001432:	6ad9      	ldr	r1, [r3, #44]	; 0x2c
10001434:	6a98      	ldr	r0, [r3, #40]	; 0x28
10001436:	f382 8810 	msr	PRIMASK, r2
1000143a:	bd10      	pop	{r4, pc}
1000143c:	40030000 	.word	0x40030000

10001440 <XMC_SPI_CH_InitEx>:
10001440:	b570      	push	{r4, r5, r6, lr}
10001442:	1c0d      	adds	r5, r1, #0
10001444:	1c04      	adds	r4, r0, #0
10001446:	1c16      	adds	r6, r2, #0
10001448:	f000 f9c6 	bl	100017d8 <XMC_USIC_CH_Enable>
1000144c:	796b      	ldrb	r3, [r5, #5]
1000144e:	2b00      	cmp	r3, #0
10001450:	d10c      	bne.n	1000146c <XMC_SPI_CH_InitEx+0x2c>
10001452:	2e00      	cmp	r6, #0
10001454:	d00a      	beq.n	1000146c <XMC_SPI_CH_InitEx+0x2c>
10001456:	792b      	ldrb	r3, [r5, #4]
10001458:	1c20      	adds	r0, r4, #0
1000145a:	6829      	ldr	r1, [r5, #0]
1000145c:	2202      	movs	r2, #2
1000145e:	2b00      	cmp	r3, #0
10001460:	d002      	beq.n	10001468 <XMC_SPI_CH_InitEx+0x28>
10001462:	f000 f903 	bl	1000166c <XMC_USIC_CH_SetBaudrateEx>
10001466:	e001      	b.n	1000146c <XMC_SPI_CH_InitEx+0x2c>
10001468:	f000 f8b2 	bl	100015d0 <XMC_USIC_CH_SetBaudrate>
1000146c:	4b08      	ldr	r3, [pc, #32]	; (10001490 <XMC_SPI_CH_InitEx+0x50>)
1000146e:	6363      	str	r3, [r4, #52]	; 0x34
10001470:	23a2      	movs	r3, #162	; 0xa2
10001472:	00db      	lsls	r3, r3, #3
10001474:	63a3      	str	r3, [r4, #56]	; 0x38
10001476:	796b      	ldrb	r3, [r5, #5]
10001478:	2b00      	cmp	r3, #0
1000147a:	d103      	bne.n	10001484 <XMC_SPI_CH_InitEx+0x44>
1000147c:	220b      	movs	r2, #11
1000147e:	79ab      	ldrb	r3, [r5, #6]
10001480:	4313      	orrs	r3, r2
10001482:	63e3      	str	r3, [r4, #60]	; 0x3c
10001484:	2301      	movs	r3, #1
10001486:	425b      	negs	r3, r3
10001488:	64e3      	str	r3, [r4, #76]	; 0x4c
1000148a:	892b      	ldrh	r3, [r5, #8]
1000148c:	6423      	str	r3, [r4, #64]	; 0x40
1000148e:	bd70      	pop	{r4, r5, r6, pc}
10001490:	073f0102 	.word	0x073f0102

10001494 <XMC_SPI_CH_Transmit>:
10001494:	23ff      	movs	r3, #255	; 0xff
10001496:	b530      	push	{r4, r5, lr}
10001498:	0195      	lsls	r5, r2, #6
1000149a:	402b      	ands	r3, r5
1000149c:	25c0      	movs	r5, #192	; 0xc0
1000149e:	6c04      	ldr	r4, [r0, #64]	; 0x40
100014a0:	43ac      	bics	r4, r5
100014a2:	4323      	orrs	r3, r4
100014a4:	6403      	str	r3, [r0, #64]	; 0x40
100014a6:	1c03      	adds	r3, r0, #0
100014a8:	33fc      	adds	r3, #252	; 0xfc
100014aa:	68dc      	ldr	r4, [r3, #12]
100014ac:	23e0      	movs	r3, #224	; 0xe0
100014ae:	04db      	lsls	r3, r3, #19
100014b0:	421c      	tst	r4, r3
100014b2:	d10c      	bne.n	100014ce <XMC_SPI_CH_Transmit+0x3a>
100014b4:	247f      	movs	r4, #127	; 0x7f
100014b6:	6b83      	ldr	r3, [r0, #56]	; 0x38
100014b8:	43a3      	bics	r3, r4
100014ba:	b2db      	uxtb	r3, r3
100014bc:	2b80      	cmp	r3, #128	; 0x80
100014be:	d0f9      	beq.n	100014b4 <XMC_SPI_CH_Transmit+0x20>
100014c0:	2480      	movs	r4, #128	; 0x80
100014c2:	6cc3      	ldr	r3, [r0, #76]	; 0x4c
100014c4:	01a4      	lsls	r4, r4, #6
100014c6:	4323      	orrs	r3, r4
100014c8:	64c3      	str	r3, [r0, #76]	; 0x4c
100014ca:	3220      	adds	r2, #32
100014cc:	e000      	b.n	100014d0 <XMC_SPI_CH_Transmit+0x3c>
100014ce:	3260      	adds	r2, #96	; 0x60
100014d0:	0092      	lsls	r2, r2, #2
100014d2:	5011      	str	r1, [r2, r0]
100014d4:	bd30      	pop	{r4, r5, pc}

100014d6 <XMC_SPI_CH_GetReceivedData>:
100014d6:	1c03      	adds	r3, r0, #0
100014d8:	22e0      	movs	r2, #224	; 0xe0
100014da:	33fc      	adds	r3, #252	; 0xfc
100014dc:	6919      	ldr	r1, [r3, #16]
100014de:	04d2      	lsls	r2, r2, #19
100014e0:	4211      	tst	r1, r2
100014e2:	d101      	bne.n	100014e8 <XMC_SPI_CH_GetReceivedData+0x12>
100014e4:	6d40      	ldr	r0, [r0, #84]	; 0x54
100014e6:	e000      	b.n	100014ea <XMC_SPI_CH_GetReceivedData+0x14>
100014e8:	6a18      	ldr	r0, [r3, #32]
100014ea:	b280      	uxth	r0, r0
100014ec:	4770      	bx	lr

100014ee <XMC_SPI_CH_DisableEvent>:
100014ee:	22fe      	movs	r2, #254	; 0xfe
100014f0:	6c03      	ldr	r3, [r0, #64]	; 0x40
100014f2:	0252      	lsls	r2, r2, #9
100014f4:	400a      	ands	r2, r1
100014f6:	4393      	bics	r3, r2
100014f8:	6403      	str	r3, [r0, #64]	; 0x40
100014fa:	6bc3      	ldr	r3, [r0, #60]	; 0x3c
100014fc:	0749      	lsls	r1, r1, #29
100014fe:	0c09      	lsrs	r1, r1, #16
10001500:	438b      	bics	r3, r1
10001502:	63c3      	str	r3, [r0, #60]	; 0x3c
10001504:	4770      	bx	lr
	...

10001508 <XMC_UART_CH_InitEx>:
10001508:	b5f8      	push	{r3, r4, r5, r6, r7, lr}
1000150a:	1c0e      	adds	r6, r1, #0
1000150c:	1c04      	adds	r4, r0, #0
1000150e:	1c17      	adds	r7, r2, #0
10001510:	f000 f962 	bl	100017d8 <XMC_USIC_CH_Enable>
10001514:	7a33      	ldrb	r3, [r6, #8]
10001516:	2510      	movs	r5, #16
10001518:	2b00      	cmp	r3, #0
1000151a:	d000      	beq.n	1000151e <XMC_UART_CH_InitEx+0x16>
1000151c:	1c1d      	adds	r5, r3, #0
1000151e:	2f00      	cmp	r7, #0
10001520:	d00a      	beq.n	10001538 <XMC_UART_CH_InitEx+0x30>
10001522:	7933      	ldrb	r3, [r6, #4]
10001524:	1c20      	adds	r0, r4, #0
10001526:	6831      	ldr	r1, [r6, #0]
10001528:	1c2a      	adds	r2, r5, #0
1000152a:	2b00      	cmp	r3, #0
1000152c:	d002      	beq.n	10001534 <XMC_UART_CH_InitEx+0x2c>
1000152e:	f000 f89d 	bl	1000166c <XMC_USIC_CH_SetBaudrateEx>
10001532:	e001      	b.n	10001538 <XMC_UART_CH_InitEx+0x30>
10001534:	f000 f84c 	bl	100015d0 <XMC_USIC_CH_SetBaudrate>
10001538:	79f3      	ldrb	r3, [r6, #7]
1000153a:	4a13      	ldr	r2, [pc, #76]	; (10001588 <XMC_UART_CH_InitEx+0x80>)
1000153c:	3b01      	subs	r3, #1
1000153e:	005b      	lsls	r3, r3, #1
10001540:	4313      	orrs	r3, r2
10001542:	2281      	movs	r2, #129	; 0x81
10001544:	086d      	lsrs	r5, r5, #1
10001546:	3501      	adds	r5, #1
10001548:	022d      	lsls	r5, r5, #8
1000154a:	431d      	orrs	r5, r3
1000154c:	63e5      	str	r5, [r4, #60]	; 0x3c
1000154e:	7973      	ldrb	r3, [r6, #5]
10001550:	0052      	lsls	r2, r2, #1
10001552:	3b01      	subs	r3, #1
10001554:	061b      	lsls	r3, r3, #24
10001556:	4313      	orrs	r3, r2
10001558:	6363      	str	r3, [r4, #52]	; 0x34
1000155a:	79b3      	ldrb	r3, [r6, #6]
1000155c:	2b00      	cmp	r3, #0
1000155e:	d004      	beq.n	1000156a <XMC_UART_CH_InitEx+0x62>
10001560:	6b62      	ldr	r2, [r4, #52]	; 0x34
10001562:	3b01      	subs	r3, #1
10001564:	041b      	lsls	r3, r3, #16
10001566:	4313      	orrs	r3, r2
10001568:	e004      	b.n	10001574 <XMC_UART_CH_InitEx+0x6c>
1000156a:	7972      	ldrb	r2, [r6, #5]
1000156c:	6b61      	ldr	r1, [r4, #52]	; 0x34
1000156e:	1e53      	subs	r3, r2, #1
10001570:	041b      	lsls	r3, r3, #16
10001572:	430b      	orrs	r3, r1
10001574:	6363      	str	r3, [r4, #52]	; 0x34
10001576:	23a0      	movs	r3, #160	; 0xa0
10001578:	00db      	lsls	r3, r3, #3
1000157a:	63a3      	str	r3, [r4, #56]	; 0x38
1000157c:	2301      	movs	r3, #1
1000157e:	425b      	negs	r3, r3
10001580:	64e3      	str	r3, [r4, #76]	; 0x4c
10001582:	8973      	ldrh	r3, [r6, #10]
10001584:	6423      	str	r3, [r4, #64]	; 0x40
10001586:	bdf8      	pop	{r3, r4, r5, r6, r7, pc}
10001588:	00030001 	.word	0x00030001

1000158c <XMC_UART_CH_Transmit>:
1000158c:	1c03      	adds	r3, r0, #0
1000158e:	33fc      	adds	r3, #252	; 0xfc
10001590:	68da      	ldr	r2, [r3, #12]
10001592:	23e0      	movs	r3, #224	; 0xe0
10001594:	04db      	lsls	r3, r3, #19
10001596:	421a      	tst	r2, r3
10001598:	d10b      	bne.n	100015b2 <XMC_UART_CH_Transmit+0x26>
1000159a:	227f      	movs	r2, #127	; 0x7f
1000159c:	6b83      	ldr	r3, [r0, #56]	; 0x38
1000159e:	4393      	bics	r3, r2
100015a0:	b2db      	uxtb	r3, r3
100015a2:	2b80      	cmp	r3, #128	; 0x80
100015a4:	d0f9      	beq.n	1000159a <XMC_UART_CH_Transmit+0xe>
100015a6:	2380      	movs	r3, #128	; 0x80
100015a8:	019b      	lsls	r3, r3, #6
100015aa:	64c3      	str	r3, [r0, #76]	; 0x4c
100015ac:	3004      	adds	r0, #4
100015ae:	67c1      	str	r1, [r0, #124]	; 0x7c
100015b0:	e002      	b.n	100015b8 <XMC_UART_CH_Transmit+0x2c>
100015b2:	23c0      	movs	r3, #192	; 0xc0
100015b4:	005b      	lsls	r3, r3, #1
100015b6:	50c1      	str	r1, [r0, r3]
100015b8:	4770      	bx	lr

100015ba <XMC_USIC_Enable.part.0>:
100015ba:	b508      	push	{r3, lr}
100015bc:	2008      	movs	r0, #8
100015be:	f7ff fdf5 	bl	100011ac <XMC_SCU_CLOCK_UngatePeripheralClock>
100015c2:	2008      	movs	r0, #8
100015c4:	f7ff fe06 	bl	100011d4 <XMC_SCU_CLOCK_IsPeripheralClockGated>
100015c8:	2800      	cmp	r0, #0
100015ca:	d1fa      	bne.n	100015c2 <XMC_USIC_Enable.part.0+0x8>
100015cc:	bd08      	pop	{r3, pc}
	...

100015d0 <XMC_USIC_CH_SetBaudrate>:
100015d0:	b5f0      	push	{r4, r5, r6, r7, lr}
100015d2:	2401      	movs	r4, #1
100015d4:	b087      	sub	sp, #28
100015d6:	2963      	cmp	r1, #99	; 0x63
100015d8:	d940      	bls.n	1000165c <XMC_USIC_CH_SetBaudrate+0x8c>
100015da:	2a00      	cmp	r2, #0
100015dc:	d03e      	beq.n	1000165c <XMC_USIC_CH_SetBaudrate+0x8c>
100015de:	1c0e      	adds	r6, r1, #0
100015e0:	9204      	str	r2, [sp, #16]
100015e2:	1c05      	adds	r5, r0, #0
100015e4:	f7ff fecc 	bl	10001380 <XMC_SCU_CLOCK_GetPeripheralClockFrequency>
100015e8:	2164      	movs	r1, #100	; 0x64
100015ea:	f7ff fef9 	bl	100013e0 <__aeabi_uidiv>
100015ee:	2780      	movs	r7, #128	; 0x80
100015f0:	9003      	str	r0, [sp, #12]
100015f2:	2164      	movs	r1, #100	; 0x64
100015f4:	1c30      	adds	r0, r6, #0
100015f6:	f7ff fef3 	bl	100013e0 <__aeabi_uidiv>
100015fa:	00ff      	lsls	r7, r7, #3
100015fc:	9401      	str	r4, [sp, #4]
100015fe:	1c3c      	adds	r4, r7, #0
10001600:	9b04      	ldr	r3, [sp, #16]
10001602:	4343      	muls	r3, r0
10001604:	9305      	str	r3, [sp, #20]
10001606:	9b03      	ldr	r3, [sp, #12]
10001608:	029e      	lsls	r6, r3, #10
1000160a:	4b16      	ldr	r3, [pc, #88]	; (10001664 <XMC_USIC_CH_SetBaudrate+0x94>)
1000160c:	9302      	str	r3, [sp, #8]
1000160e:	1c30      	adds	r0, r6, #0
10001610:	9905      	ldr	r1, [sp, #20]
10001612:	f7ff fee5 	bl	100013e0 <__aeabi_uidiv>
10001616:	2280      	movs	r2, #128	; 0x80
10001618:	0a83      	lsrs	r3, r0, #10
1000161a:	00d2      	lsls	r2, r2, #3
1000161c:	4293      	cmp	r3, r2
1000161e:	d807      	bhi.n	10001630 <XMC_USIC_CH_SetBaudrate+0x60>
10001620:	9a02      	ldr	r2, [sp, #8]
10001622:	0580      	lsls	r0, r0, #22
10001624:	0d80      	lsrs	r0, r0, #22
10001626:	4290      	cmp	r0, r2
10001628:	d202      	bcs.n	10001630 <XMC_USIC_CH_SetBaudrate+0x60>
1000162a:	1c27      	adds	r7, r4, #0
1000162c:	9002      	str	r0, [sp, #8]
1000162e:	9301      	str	r3, [sp, #4]
10001630:	9b03      	ldr	r3, [sp, #12]
10001632:	3c01      	subs	r4, #1
10001634:	1af6      	subs	r6, r6, r3
10001636:	2c00      	cmp	r4, #0
10001638:	d1e9      	bne.n	1000160e <XMC_USIC_CH_SetBaudrate+0x3e>
1000163a:	2280      	movs	r2, #128	; 0x80
1000163c:	1e7b      	subs	r3, r7, #1
1000163e:	0212      	lsls	r2, r2, #8
10001640:	4313      	orrs	r3, r2
10001642:	612b      	str	r3, [r5, #16]
10001644:	9b04      	ldr	r3, [sp, #16]
10001646:	6969      	ldr	r1, [r5, #20]
10001648:	4a07      	ldr	r2, [pc, #28]	; (10001668 <XMC_USIC_CH_SetBaudrate+0x98>)
1000164a:	3b01      	subs	r3, #1
1000164c:	029b      	lsls	r3, r3, #10
1000164e:	400a      	ands	r2, r1
10001650:	431a      	orrs	r2, r3
10001652:	9b01      	ldr	r3, [sp, #4]
10001654:	3b01      	subs	r3, #1
10001656:	041b      	lsls	r3, r3, #16
10001658:	431a      	orrs	r2, r3
1000165a:	616a      	str	r2, [r5, #20]
1000165c:	1c20      	adds	r0, r4, #0
1000165e:	b007      	add	sp, #28
10001660:	bdf0      	pop	{r4, r5, r6, r7, pc}
10001662:	46c0      	nop			; (mov r8, r8)
10001664:	000003ff 	.word	0x000003ff
10001668:	fc0080ef 	.word	0xfc0080ef

1000166c <XMC_USIC_CH_SetBaudrateEx>:
1000166c:	b5f0      	push	{r4, r5, r6, r7, lr}
1000166e:	b085      	sub	sp, #20
10001670:	9201      	str	r2, [sp, #4]
10001672:	1c07      	adds	r7, r0, #0
10001674:	9103      	str	r1, [sp, #12]
10001676:	f7ff fe83 	bl	10001380 <XMC_SCU_CLOCK_GetPeripheralClockFrequency>
1000167a:	9b01      	ldr	r3, [sp, #4]
1000167c:	9a03      	ldr	r2, [sp, #12]
1000167e:	1c06      	adds	r6, r0, #0
10001680:	4353      	muls	r3, r2
10001682:	2401      	movs	r4, #1
10001684:	9300      	str	r3, [sp, #0]
10001686:	4298      	cmp	r0, r3
10001688:	dd45      	ble.n	10001716 <XMC_USIC_CH_SetBaudrateEx+0xaa>
1000168a:	1c19      	adds	r1, r3, #0
1000168c:	f7ff feb8 	bl	10001400 <__aeabi_idiv>
10001690:	9b00      	ldr	r3, [sp, #0]
10001692:	1c05      	adds	r5, r0, #0
10001694:	40a3      	lsls	r3, r4
10001696:	9302      	str	r3, [sp, #8]
10001698:	4b20      	ldr	r3, [pc, #128]	; (1000171c <XMC_USIC_CH_SetBaudrateEx+0xb0>)
1000169a:	429d      	cmp	r5, r3
1000169c:	d90a      	bls.n	100016b4 <XMC_USIC_CH_SetBaudrateEx+0x48>
1000169e:	1c30      	adds	r0, r6, #0
100016a0:	9902      	ldr	r1, [sp, #8]
100016a2:	f7ff fead 	bl	10001400 <__aeabi_idiv>
100016a6:	9a00      	ldr	r2, [sp, #0]
100016a8:	9b02      	ldr	r3, [sp, #8]
100016aa:	4694      	mov	ip, r2
100016ac:	3401      	adds	r4, #1
100016ae:	1c05      	adds	r5, r0, #0
100016b0:	4463      	add	r3, ip
100016b2:	e7f0      	b.n	10001696 <XMC_USIC_CH_SetBaudrateEx+0x2a>
100016b4:	9901      	ldr	r1, [sp, #4]
100016b6:	1c6b      	adds	r3, r5, #1
100016b8:	4361      	muls	r1, r4
100016ba:	1c30      	adds	r0, r6, #0
100016bc:	4359      	muls	r1, r3
100016be:	9300      	str	r3, [sp, #0]
100016c0:	f7ff fe8e 	bl	100013e0 <__aeabi_uidiv>
100016c4:	1c21      	adds	r1, r4, #0
100016c6:	9b03      	ldr	r3, [sp, #12]
100016c8:	4369      	muls	r1, r5
100016ca:	1a18      	subs	r0, r3, r0
100016cc:	17c2      	asrs	r2, r0, #31
100016ce:	1883      	adds	r3, r0, r2
100016d0:	4053      	eors	r3, r2
100016d2:	9302      	str	r3, [sp, #8]
100016d4:	9b01      	ldr	r3, [sp, #4]
100016d6:	1c30      	adds	r0, r6, #0
100016d8:	4359      	muls	r1, r3
100016da:	f7ff fe81 	bl	100013e0 <__aeabi_uidiv>
100016de:	9b03      	ldr	r3, [sp, #12]
100016e0:	1a18      	subs	r0, r3, r0
100016e2:	17c3      	asrs	r3, r0, #31
100016e4:	18c0      	adds	r0, r0, r3
100016e6:	4058      	eors	r0, r3
100016e8:	9b02      	ldr	r3, [sp, #8]
100016ea:	4283      	cmp	r3, r0
100016ec:	da00      	bge.n	100016f0 <XMC_USIC_CH_SetBaudrateEx+0x84>
100016ee:	9d00      	ldr	r5, [sp, #0]
100016f0:	2380      	movs	r3, #128	; 0x80
100016f2:	00db      	lsls	r3, r3, #3
100016f4:	1b5d      	subs	r5, r3, r5
100016f6:	2380      	movs	r3, #128	; 0x80
100016f8:	01db      	lsls	r3, r3, #7
100016fa:	431d      	orrs	r5, r3
100016fc:	613d      	str	r5, [r7, #16]
100016fe:	9b01      	ldr	r3, [sp, #4]
10001700:	6979      	ldr	r1, [r7, #20]
10001702:	4a07      	ldr	r2, [pc, #28]	; (10001720 <XMC_USIC_CH_SetBaudrateEx+0xb4>)
10001704:	3b01      	subs	r3, #1
10001706:	029b      	lsls	r3, r3, #10
10001708:	400a      	ands	r2, r1
1000170a:	3c01      	subs	r4, #1
1000170c:	4313      	orrs	r3, r2
1000170e:	0424      	lsls	r4, r4, #16
10001710:	431c      	orrs	r4, r3
10001712:	617c      	str	r4, [r7, #20]
10001714:	2400      	movs	r4, #0
10001716:	1c20      	adds	r0, r4, #0
10001718:	b005      	add	sp, #20
1000171a:	bdf0      	pop	{r4, r5, r6, r7, pc}
1000171c:	000003fe 	.word	0x000003fe
10001720:	fc0080ef 	.word	0xfc0080ef

10001724 <XMC_USIC_CH_TXFIFO_Configure>:
10001724:	30fc      	adds	r0, #252	; 0xfc
10001726:	b530      	push	{r4, r5, lr}
10001728:	68c5      	ldr	r5, [r0, #12]
1000172a:	4c06      	ldr	r4, [pc, #24]	; (10001744 <XMC_USIC_CH_TXFIFO_Configure+0x20>)
1000172c:	0612      	lsls	r2, r2, #24
1000172e:	402c      	ands	r4, r5
10001730:	60c4      	str	r4, [r0, #12]
10001732:	68c5      	ldr	r5, [r0, #12]
10001734:	4c04      	ldr	r4, [pc, #16]	; (10001748 <XMC_USIC_CH_TXFIFO_Configure+0x24>)
10001736:	021b      	lsls	r3, r3, #8
10001738:	402c      	ands	r4, r5
1000173a:	4321      	orrs	r1, r4
1000173c:	430a      	orrs	r2, r1
1000173e:	4313      	orrs	r3, r2
10001740:	60c3      	str	r3, [r0, #12]
10001742:	bd30      	pop	{r4, r5, pc}
10001744:	f8ffffff 	.word	0xf8ffffff
10001748:	f8ffc0c0 	.word	0xf8ffc0c0

1000174c <XMC_USIC_CH_RXFIFO_Configure>:
1000174c:	30fc      	adds	r0, #252	; 0xfc
1000174e:	b530      	push	{r4, r5, lr}
10001750:	6905      	ldr	r5, [r0, #16]
10001752:	4c08      	ldr	r4, [pc, #32]	; (10001774 <XMC_USIC_CH_RXFIFO_Configure+0x28>)
10001754:	0612      	lsls	r2, r2, #24
10001756:	402c      	ands	r4, r5
10001758:	6104      	str	r4, [r0, #16]
1000175a:	6904      	ldr	r4, [r0, #16]
1000175c:	4d06      	ldr	r5, [pc, #24]	; (10001778 <XMC_USIC_CH_RXFIFO_Configure+0x2c>)
1000175e:	021b      	lsls	r3, r3, #8
10001760:	4025      	ands	r5, r4
10001762:	2480      	movs	r4, #128	; 0x80
10001764:	0564      	lsls	r4, r4, #21
10001766:	432c      	orrs	r4, r5
10001768:	4321      	orrs	r1, r4
1000176a:	430a      	orrs	r2, r1
1000176c:	4313      	orrs	r3, r2
1000176e:	6103      	str	r3, [r0, #16]
10001770:	bd30      	pop	{r4, r5, pc}
10001772:	46c0      	nop			; (mov r8, r8)
10001774:	f8ffffff 	.word	0xf8ffffff
10001778:	efffc0c0 	.word	0xefffc0c0

1000177c <XMC_USIC_CH_RXFIFO_SetSizeTriggerLimit>:
1000177c:	30fc      	adds	r0, #252	; 0xfc
1000177e:	6901      	ldr	r1, [r0, #16]
10001780:	4b02      	ldr	r3, [pc, #8]	; (1000178c <XMC_USIC_CH_RXFIFO_SetSizeTriggerLimit+0x10>)
10001782:	0212      	lsls	r2, r2, #8
10001784:	400b      	ands	r3, r1
10001786:	431a      	orrs	r2, r3
10001788:	6102      	str	r2, [r0, #16]
1000178a:	4770      	bx	lr
1000178c:	ffffc0ff 	.word	0xffffc0ff

10001790 <XMC_USIC_CH_SetInterruptNodePointer>:
10001790:	b510      	push	{r4, lr}
10001792:	2407      	movs	r4, #7
10001794:	408c      	lsls	r4, r1
10001796:	408a      	lsls	r2, r1
10001798:	6983      	ldr	r3, [r0, #24]
1000179a:	43a3      	bics	r3, r4
1000179c:	4313      	orrs	r3, r2
1000179e:	6183      	str	r3, [r0, #24]
100017a0:	bd10      	pop	{r4, pc}
	...

100017a4 <XMC_USIC_Enable>:
100017a4:	b508      	push	{r3, lr}
100017a6:	4b0a      	ldr	r3, [pc, #40]	; (100017d0 <XMC_USIC_Enable+0x2c>)
100017a8:	4298      	cmp	r0, r3
100017aa:	d102      	bne.n	100017b2 <XMC_USIC_Enable+0xe>
100017ac:	f7ff ff05 	bl	100015ba <XMC_USIC_Enable.part.0>
100017b0:	e00c      	b.n	100017cc <XMC_USIC_Enable+0x28>
100017b2:	4b08      	ldr	r3, [pc, #32]	; (100017d4 <XMC_USIC_Enable+0x30>)
100017b4:	4298      	cmp	r0, r3
100017b6:	d109      	bne.n	100017cc <XMC_USIC_Enable+0x28>
100017b8:	2080      	movs	r0, #128	; 0x80
100017ba:	02c0      	lsls	r0, r0, #11
100017bc:	f7ff fcf6 	bl	100011ac <XMC_SCU_CLOCK_UngatePeripheralClock>
100017c0:	2080      	movs	r0, #128	; 0x80
100017c2:	02c0      	lsls	r0, r0, #11
100017c4:	f7ff fd06 	bl	100011d4 <XMC_SCU_CLOCK_IsPeripheralClockGated>
100017c8:	2800      	cmp	r0, #0
100017ca:	d1f9      	bne.n	100017c0 <XMC_USIC_Enable+0x1c>
100017cc:	bd08      	pop	{r3, pc}
100017ce:	46c0      	nop			; (mov r8, r8)
100017d0:	48000008 	.word	0x48000008
100017d4:	48004008 	.word	0x48004008

100017d8 <XMC_USIC_CH_Enable>:
100017d8:	2390      	movs	r3, #144	; 0x90
100017da:	b510      	push	{r4, lr}
100017dc:	05db      	lsls	r3, r3, #23
100017de:	1e04      	subs	r4, r0, #0
100017e0:	429c      	cmp	r4, r3
100017e2:	d002      	beq.n	100017ea <XMC_USIC_CH_Enable+0x12>
100017e4:	4b0c      	ldr	r3, [pc, #48]	; (10001818 <XMC_USIC_CH_Enable+0x40>)
100017e6:	4298      	cmp	r0, r3
100017e8:	d102      	bne.n	100017f0 <XMC_USIC_CH_Enable+0x18>
100017ea:	f7ff fee6 	bl	100015ba <XMC_USIC_Enable.part.0>
100017ee:	e008      	b.n	10001802 <XMC_USIC_CH_Enable+0x2a>
100017f0:	4b0a      	ldr	r3, [pc, #40]	; (1000181c <XMC_USIC_CH_Enable+0x44>)
100017f2:	4298      	cmp	r0, r3
100017f4:	d002      	beq.n	100017fc <XMC_USIC_CH_Enable+0x24>
100017f6:	4b0a      	ldr	r3, [pc, #40]	; (10001820 <XMC_USIC_CH_Enable+0x48>)
100017f8:	4298      	cmp	r0, r3
100017fa:	d102      	bne.n	10001802 <XMC_USIC_CH_Enable+0x2a>
100017fc:	4809      	ldr	r0, [pc, #36]	; (10001824 <XMC_USIC_CH_Enable+0x4c>)
100017fe:	f7ff ffd1 	bl	100017a4 <XMC_USIC_Enable>
10001802:	2303      	movs	r3, #3
10001804:	60e3      	str	r3, [r4, #12]
10001806:	68e3      	ldr	r3, [r4, #12]
10001808:	07db      	lsls	r3, r3, #31
1000180a:	d5fc      	bpl.n	10001806 <XMC_USIC_CH_Enable+0x2e>
1000180c:	220f      	movs	r2, #15
1000180e:	6c23      	ldr	r3, [r4, #64]	; 0x40
10001810:	4393      	bics	r3, r2
10001812:	6423      	str	r3, [r4, #64]	; 0x40
10001814:	bd10      	pop	{r4, pc}
10001816:	46c0      	nop			; (mov r8, r8)
10001818:	48000200 	.word	0x48000200
1000181c:	48004000 	.word	0x48004000
10001820:	48004200 	.word	0x48004200
10001824:	48004008 	.word	0x48004008

10001828 <_sbrk>:
10001828:	4a0c      	ldr	r2, [pc, #48]	; (1000185c <_sbrk+0x34>)
1000182a:	b508      	push	{r3, lr}
1000182c:	6811      	ldr	r1, [r2, #0]
1000182e:	1c03      	adds	r3, r0, #0
10001830:	2900      	cmp	r1, #0
10001832:	d101      	bne.n	10001838 <_sbrk+0x10>
10001834:	490a      	ldr	r1, [pc, #40]	; (10001860 <_sbrk+0x38>)
10001836:	6011      	str	r1, [r2, #0]
10001838:	2103      	movs	r1, #3
1000183a:	6810      	ldr	r0, [r2, #0]
1000183c:	3303      	adds	r3, #3
1000183e:	438b      	bics	r3, r1
10001840:	4908      	ldr	r1, [pc, #32]	; (10001864 <_sbrk+0x3c>)
10001842:	18c3      	adds	r3, r0, r3
10001844:	428b      	cmp	r3, r1
10001846:	d201      	bcs.n	1000184c <_sbrk+0x24>
10001848:	6013      	str	r3, [r2, #0]
1000184a:	e005      	b.n	10001858 <_sbrk+0x30>
1000184c:	f000 fb90 	bl	10001f70 <__errno>
10001850:	230c      	movs	r3, #12
10001852:	6003      	str	r3, [r0, #0]
10001854:	2001      	movs	r0, #1
10001856:	4240      	negs	r0, r0
10001858:	bd08      	pop	{r3, pc}
1000185a:	46c0      	nop			; (mov r8, r8)
1000185c:	200005f0 	.word	0x200005f0
10001860:	20000750 	.word	0x20000750
10001864:	20003ffc 	.word	0x20003ffc

10001868 <_init>:
10001868:	4770      	bx	lr

1000186a <UART_Init>:
1000186a:	b508      	push	{r3, lr}
1000186c:	6843      	ldr	r3, [r0, #4]
1000186e:	685b      	ldr	r3, [r3, #4]
10001870:	4798      	blx	r3
10001872:	bd08      	pop	{r3, pc}

10001874 <UART_Transmit>:
10001874:	b5f8      	push	{r3, r4, r5, r6, r7, lr}
10001876:	6844      	ldr	r4, [r0, #4]
10001878:	1ca3      	adds	r3, r4, #2
1000187a:	7fde      	ldrb	r6, [r3, #31]
1000187c:	2304      	movs	r3, #4
1000187e:	2e02      	cmp	r6, #2
10001880:	d135      	bne.n	100018ee <UART_Transmit+0x7a>
10001882:	2303      	movs	r3, #3
10001884:	2900      	cmp	r1, #0
10001886:	d032      	beq.n	100018ee <UART_Transmit+0x7a>
10001888:	2a00      	cmp	r2, #0
1000188a:	d030      	beq.n	100018ee <UART_Transmit+0x7a>
1000188c:	6885      	ldr	r5, [r0, #8]
1000188e:	1c33      	adds	r3, r6, #0
10001890:	7e2f      	ldrb	r7, [r5, #24]
10001892:	2f00      	cmp	r7, #0
10001894:	d12b      	bne.n	100018ee <UART_Transmit+0x7a>
10001896:	3b01      	subs	r3, #1
10001898:	762b      	strb	r3, [r5, #24]
1000189a:	3404      	adds	r4, #4
1000189c:	7fe3      	ldrb	r3, [r4, #31]
1000189e:	2b00      	cmp	r3, #0
100018a0:	d004      	beq.n	100018ac <UART_Transmit+0x38>
100018a2:	2480      	movs	r4, #128	; 0x80
100018a4:	6803      	ldr	r3, [r0, #0]
100018a6:	0224      	lsls	r4, r4, #8
100018a8:	33fc      	adds	r3, #252	; 0xfc
100018aa:	61dc      	str	r4, [r3, #28]
100018ac:	1c04      	adds	r4, r0, #0
100018ae:	1c0d      	adds	r5, r1, #0
100018b0:	188e      	adds	r6, r1, r2
100018b2:	6863      	ldr	r3, [r4, #4]
100018b4:	3304      	adds	r3, #4
100018b6:	7fdb      	ldrb	r3, [r3, #31]
100018b8:	42b5      	cmp	r5, r6
100018ba:	d00d      	beq.n	100018d8 <UART_Transmit+0x64>
100018bc:	2b00      	cmp	r3, #0
100018be:	d005      	beq.n	100018cc <UART_Transmit+0x58>
100018c0:	6822      	ldr	r2, [r4, #0]
100018c2:	1c13      	adds	r3, r2, #0
100018c4:	33fc      	adds	r3, #252	; 0xfc
100018c6:	699b      	ldr	r3, [r3, #24]
100018c8:	04db      	lsls	r3, r3, #19
100018ca:	d4fa      	bmi.n	100018c2 <UART_Transmit+0x4e>
100018cc:	7829      	ldrb	r1, [r5, #0]
100018ce:	6820      	ldr	r0, [r4, #0]
100018d0:	f7ff fe5c 	bl	1000158c <XMC_UART_CH_Transmit>
100018d4:	3501      	adds	r5, #1
100018d6:	e7ec      	b.n	100018b2 <UART_Transmit+0x3e>
100018d8:	2b00      	cmp	r3, #0
100018da:	d005      	beq.n	100018e8 <UART_Transmit+0x74>
100018dc:	6822      	ldr	r2, [r4, #0]
100018de:	1c13      	adds	r3, r2, #0
100018e0:	33fc      	adds	r3, #252	; 0xfc
100018e2:	699b      	ldr	r3, [r3, #24]
100018e4:	051b      	lsls	r3, r3, #20
100018e6:	d5fa      	bpl.n	100018de <UART_Transmit+0x6a>
100018e8:	2300      	movs	r3, #0
100018ea:	68a2      	ldr	r2, [r4, #8]
100018ec:	7613      	strb	r3, [r2, #24]
100018ee:	1c18      	adds	r0, r3, #0
100018f0:	bdf8      	pop	{r3, r4, r5, r6, r7, pc}
	...

100018f4 <UART_0_init>:
100018f4:	b570      	push	{r4, r5, r6, lr}
100018f6:	4e1a      	ldr	r6, [pc, #104]	; (10001960 <UART_0_init+0x6c>)
100018f8:	4c1a      	ldr	r4, [pc, #104]	; (10001964 <UART_0_init+0x70>)
100018fa:	1c30      	adds	r0, r6, #0
100018fc:	2103      	movs	r1, #3
100018fe:	4a1a      	ldr	r2, [pc, #104]	; (10001968 <UART_0_init+0x74>)
10001900:	f7ff fc0e 	bl	10001120 <XMC_GPIO_Init>
10001904:	1c20      	adds	r0, r4, #0
10001906:	4919      	ldr	r1, [pc, #100]	; (1000196c <UART_0_init+0x78>)
10001908:	2201      	movs	r2, #1
1000190a:	f7ff fdfd 	bl	10001508 <XMC_UART_CH_InitEx>
1000190e:	2207      	movs	r2, #7
10001910:	69e3      	ldr	r3, [r4, #28]
10001912:	1c20      	adds	r0, r4, #0
10001914:	4393      	bics	r3, r2
10001916:	61e3      	str	r3, [r4, #28]
10001918:	6aa3      	ldr	r3, [r4, #40]	; 0x28
1000191a:	2110      	movs	r1, #16
1000191c:	4393      	bics	r3, r2
1000191e:	62a3      	str	r3, [r4, #40]	; 0x28
10001920:	6b23      	ldr	r3, [r4, #48]	; 0x30
10001922:	2502      	movs	r5, #2
10001924:	4393      	bics	r3, r2
10001926:	6323      	str	r3, [r4, #48]	; 0x30
10001928:	3a03      	subs	r2, #3
1000192a:	2301      	movs	r3, #1
1000192c:	f7ff fefa 	bl	10001724 <XMC_USIC_CH_TXFIFO_Configure>
10001930:	1c20      	adds	r0, r4, #0
10001932:	2100      	movs	r1, #0
10001934:	2204      	movs	r2, #4
10001936:	230f      	movs	r3, #15
10001938:	f7ff ff08 	bl	1000174c <XMC_USIC_CH_RXFIFO_Configure>
1000193c:	220f      	movs	r2, #15
1000193e:	6c23      	ldr	r3, [r4, #64]	; 0x40
10001940:	1c30      	adds	r0, r6, #0
10001942:	4393      	bics	r3, r2
10001944:	432b      	orrs	r3, r5
10001946:	1c29      	adds	r1, r5, #0
10001948:	6423      	str	r3, [r4, #64]	; 0x40
1000194a:	4a09      	ldr	r2, [pc, #36]	; (10001970 <UART_0_init+0x7c>)
1000194c:	f7ff fbe8 	bl	10001120 <XMC_GPIO_Init>
10001950:	1c20      	adds	r0, r4, #0
10001952:	1c2a      	adds	r2, r5, #0
10001954:	2110      	movs	r1, #16
10001956:	f7ff ff1b 	bl	10001790 <XMC_USIC_CH_SetInterruptNodePointer>
1000195a:	2000      	movs	r0, #0
1000195c:	bd70      	pop	{r4, r5, r6, pc}
1000195e:	46c0      	nop			; (mov r8, r8)
10001960:	40040100 	.word	0x40040100
10001964:	48000200 	.word	0x48000200
10001968:	10002814 	.word	0x10002814
1000196c:	10002830 	.word	0x10002830
10001970:	10002828 	.word	0x10002828

10001974 <SYSTIMER_lInsertTimerList>:
10001974:	2224      	movs	r2, #36	; 0x24
10001976:	4342      	muls	r2, r0
10001978:	b5f0      	push	{r4, r5, r6, r7, lr}
1000197a:	4e1e      	ldr	r6, [pc, #120]	; (100019f4 <SYSTIMER_lInsertTimerList+0x80>)
1000197c:	491e      	ldr	r1, [pc, #120]	; (100019f8 <SYSTIMER_lInsertTimerList+0x84>)
1000197e:	6833      	ldr	r3, [r6, #0]
10001980:	188a      	adds	r2, r1, r2
10001982:	6995      	ldr	r5, [r2, #24]
10001984:	1e1c      	subs	r4, r3, #0
10001986:	d11d      	bne.n	100019c4 <SYSTIMER_lInsertTimerList+0x50>
10001988:	6032      	str	r2, [r6, #0]
1000198a:	e031      	b.n	100019f0 <SYSTIMER_lInsertTimerList+0x7c>
1000198c:	2224      	movs	r2, #36	; 0x24
1000198e:	685f      	ldr	r7, [r3, #4]
10001990:	4342      	muls	r2, r0
10001992:	2f00      	cmp	r7, #0
10001994:	d01b      	beq.n	100019ce <SYSTIMER_lInsertTimerList+0x5a>
10001996:	188e      	adds	r6, r1, r2
10001998:	603e      	str	r6, [r7, #0]
1000199a:	508b      	str	r3, [r1, r2]
1000199c:	1c22      	adds	r2, r4, #0
1000199e:	6077      	str	r7, [r6, #4]
100019a0:	605e      	str	r6, [r3, #4]
100019a2:	2424      	movs	r4, #36	; 0x24
100019a4:	4344      	muls	r4, r0
100019a6:	590f      	ldr	r7, [r1, r4]
100019a8:	190c      	adds	r4, r1, r4
100019aa:	69be      	ldr	r6, [r7, #24]
100019ac:	19ae      	adds	r6, r5, r6
100019ae:	61a6      	str	r6, [r4, #24]
100019b0:	69bc      	ldr	r4, [r7, #24]
100019b2:	1ba6      	subs	r6, r4, r6
100019b4:	1c14      	adds	r4, r2, #0
100019b6:	61be      	str	r6, [r7, #24]
100019b8:	2201      	movs	r2, #1
100019ba:	681b      	ldr	r3, [r3, #0]
100019bc:	2b00      	cmp	r3, #0
100019be:	d015      	beq.n	100019ec <SYSTIMER_lInsertTimerList+0x78>
100019c0:	2a00      	cmp	r2, #0
100019c2:	d113      	bne.n	100019ec <SYSTIMER_lInsertTimerList+0x78>
100019c4:	699a      	ldr	r2, [r3, #24]
100019c6:	1aad      	subs	r5, r5, r2
100019c8:	2d00      	cmp	r5, #0
100019ca:	dc04      	bgt.n	100019d6 <SYSTIMER_lInsertTimerList+0x62>
100019cc:	e7de      	b.n	1000198c <SYSTIMER_lInsertTimerList+0x18>
100019ce:	508c      	str	r4, [r1, r2]
100019d0:	188a      	adds	r2, r1, r2
100019d2:	6062      	str	r2, [r4, #4]
100019d4:	e7e5      	b.n	100019a2 <SYSTIMER_lInsertTimerList+0x2e>
100019d6:	2200      	movs	r2, #0
100019d8:	681e      	ldr	r6, [r3, #0]
100019da:	4296      	cmp	r6, r2
100019dc:	d1ed      	bne.n	100019ba <SYSTIMER_lInsertTimerList+0x46>
100019de:	3224      	adds	r2, #36	; 0x24
100019e0:	4342      	muls	r2, r0
100019e2:	188a      	adds	r2, r1, r2
100019e4:	6053      	str	r3, [r2, #4]
100019e6:	601a      	str	r2, [r3, #0]
100019e8:	6195      	str	r5, [r2, #24]
100019ea:	e7e5      	b.n	100019b8 <SYSTIMER_lInsertTimerList+0x44>
100019ec:	4b01      	ldr	r3, [pc, #4]	; (100019f4 <SYSTIMER_lInsertTimerList+0x80>)
100019ee:	601c      	str	r4, [r3, #0]
100019f0:	bdf0      	pop	{r4, r5, r6, r7, pc}
100019f2:	46c0      	nop			; (mov r8, r8)
100019f4:	20000618 	.word	0x20000618
100019f8:	20000628 	.word	0x20000628

100019fc <SYSTIMER_lRemoveTimerList>:
100019fc:	2224      	movs	r2, #36	; 0x24
100019fe:	4350      	muls	r0, r2
10001a00:	4b10      	ldr	r3, [pc, #64]	; (10001a44 <SYSTIMER_lRemoveTimerList+0x48>)
10001a02:	b530      	push	{r4, r5, lr}
10001a04:	181c      	adds	r4, r3, r0
10001a06:	6862      	ldr	r2, [r4, #4]
10001a08:	58c1      	ldr	r1, [r0, r3]
10001a0a:	2a00      	cmp	r2, #0
10001a0c:	d10a      	bne.n	10001a24 <SYSTIMER_lRemoveTimerList+0x28>
10001a0e:	4d0e      	ldr	r5, [pc, #56]	; (10001a48 <SYSTIMER_lRemoveTimerList+0x4c>)
10001a10:	6029      	str	r1, [r5, #0]
10001a12:	2900      	cmp	r1, #0
10001a14:	d015      	beq.n	10001a42 <SYSTIMER_lRemoveTimerList+0x46>
10001a16:	698d      	ldr	r5, [r1, #24]
10001a18:	69a4      	ldr	r4, [r4, #24]
10001a1a:	604a      	str	r2, [r1, #4]
10001a1c:	192c      	adds	r4, r5, r4
10001a1e:	618c      	str	r4, [r1, #24]
10001a20:	50c2      	str	r2, [r0, r3]
10001a22:	e00e      	b.n	10001a42 <SYSTIMER_lRemoveTimerList+0x46>
10001a24:	6011      	str	r1, [r2, #0]
10001a26:	2900      	cmp	r1, #0
10001a28:	d101      	bne.n	10001a2e <SYSTIMER_lRemoveTimerList+0x32>
10001a2a:	6061      	str	r1, [r4, #4]
10001a2c:	e009      	b.n	10001a42 <SYSTIMER_lRemoveTimerList+0x46>
10001a2e:	58c1      	ldr	r1, [r0, r3]
10001a30:	69a5      	ldr	r5, [r4, #24]
10001a32:	604a      	str	r2, [r1, #4]
10001a34:	58c1      	ldr	r1, [r0, r3]
10001a36:	698a      	ldr	r2, [r1, #24]
10001a38:	1952      	adds	r2, r2, r5
10001a3a:	618a      	str	r2, [r1, #24]
10001a3c:	2200      	movs	r2, #0
10001a3e:	50c2      	str	r2, [r0, r3]
10001a40:	6062      	str	r2, [r4, #4]
10001a42:	bd30      	pop	{r4, r5, pc}
10001a44:	20000628 	.word	0x20000628
10001a48:	20000618 	.word	0x20000618

10001a4c <SysTick_Handler>:
10001a4c:	4a21      	ldr	r2, [pc, #132]	; (10001ad4 <SysTick_Handler+0x88>)
10001a4e:	b570      	push	{r4, r5, r6, lr}
10001a50:	4d21      	ldr	r5, [pc, #132]	; (10001ad8 <SysTick_Handler+0x8c>)
10001a52:	6813      	ldr	r3, [r2, #0]
10001a54:	682c      	ldr	r4, [r5, #0]
10001a56:	3301      	adds	r3, #1
10001a58:	6013      	str	r3, [r2, #0]
10001a5a:	2c00      	cmp	r4, #0
10001a5c:	d039      	beq.n	10001ad2 <SysTick_Handler+0x86>
10001a5e:	69a3      	ldr	r3, [r4, #24]
10001a60:	2b01      	cmp	r3, #1
10001a62:	d902      	bls.n	10001a6a <SysTick_Handler+0x1e>
10001a64:	3b01      	subs	r3, #1
10001a66:	61a3      	str	r3, [r4, #24]
10001a68:	e033      	b.n	10001ad2 <SysTick_Handler+0x86>
10001a6a:	2300      	movs	r3, #0
10001a6c:	61a3      	str	r3, [r4, #24]
10001a6e:	69a6      	ldr	r6, [r4, #24]
10001a70:	2e00      	cmp	r6, #0
10001a72:	d12e      	bne.n	10001ad2 <SysTick_Handler+0x86>
10001a74:	1c63      	adds	r3, r4, #1
10001a76:	7fdb      	ldrb	r3, [r3, #31]
10001a78:	2b00      	cmp	r3, #0
10001a7a:	d00b      	beq.n	10001a94 <SysTick_Handler+0x48>
10001a7c:	6960      	ldr	r0, [r4, #20]
10001a7e:	f7ff ffbd 	bl	100019fc <SYSTIMER_lRemoveTimerList>
10001a82:	2301      	movs	r3, #1
10001a84:	6961      	ldr	r1, [r4, #20]
10001a86:	4a15      	ldr	r2, [pc, #84]	; (10001adc <SysTick_Handler+0x90>)
10001a88:	408b      	lsls	r3, r1
10001a8a:	6811      	ldr	r1, [r2, #0]
10001a8c:	7366      	strb	r6, [r4, #13]
10001a8e:	4399      	bics	r1, r3
10001a90:	6011      	str	r1, [r2, #0]
10001a92:	e01b      	b.n	10001acc <SysTick_Handler+0x80>
10001a94:	7b23      	ldrb	r3, [r4, #12]
10001a96:	2b00      	cmp	r3, #0
10001a98:	d108      	bne.n	10001aac <SysTick_Handler+0x60>
10001a9a:	7b63      	ldrb	r3, [r4, #13]
10001a9c:	2b01      	cmp	r3, #1
10001a9e:	d115      	bne.n	10001acc <SysTick_Handler+0x80>
10001aa0:	6960      	ldr	r0, [r4, #20]
10001aa2:	f7ff ffab 	bl	100019fc <SYSTIMER_lRemoveTimerList>
10001aa6:	2302      	movs	r3, #2
10001aa8:	7363      	strb	r3, [r4, #13]
10001aaa:	e00c      	b.n	10001ac6 <SysTick_Handler+0x7a>
10001aac:	2b01      	cmp	r3, #1
10001aae:	d110      	bne.n	10001ad2 <SysTick_Handler+0x86>
10001ab0:	7b63      	ldrb	r3, [r4, #13]
10001ab2:	2b01      	cmp	r3, #1
10001ab4:	d10a      	bne.n	10001acc <SysTick_Handler+0x80>
10001ab6:	6960      	ldr	r0, [r4, #20]
10001ab8:	f7ff ffa0 	bl	100019fc <SYSTIMER_lRemoveTimerList>
10001abc:	69e3      	ldr	r3, [r4, #28]
10001abe:	6960      	ldr	r0, [r4, #20]
10001ac0:	61a3      	str	r3, [r4, #24]
10001ac2:	f7ff ff57 	bl	10001974 <SYSTIMER_lInsertTimerList>
10001ac6:	68a3      	ldr	r3, [r4, #8]
10001ac8:	6920      	ldr	r0, [r4, #16]
10001aca:	4798      	blx	r3
10001acc:	682c      	ldr	r4, [r5, #0]
10001ace:	2c00      	cmp	r4, #0
10001ad0:	d1cd      	bne.n	10001a6e <SysTick_Handler+0x22>
10001ad2:	bd70      	pop	{r4, r5, r6, pc}
10001ad4:	20000610 	.word	0x20000610
10001ad8:	20000618 	.word	0x20000618
10001adc:	20000614 	.word	0x20000614

10001ae0 <SYSTIMER_Init>:
10001ae0:	7801      	ldrb	r1, [r0, #0]
10001ae2:	b530      	push	{r4, r5, lr}
10001ae4:	2900      	cmp	r1, #0
10001ae6:	d118      	bne.n	10001b1a <SYSTIMER_Init+0x3a>
10001ae8:	25c0      	movs	r5, #192	; 0xc0
10001aea:	4b0d      	ldr	r3, [pc, #52]	; (10001b20 <SYSTIMER_Init+0x40>)
10001aec:	4a0d      	ldr	r2, [pc, #52]	; (10001b24 <SYSTIMER_Init+0x44>)
10001aee:	6019      	str	r1, [r3, #0]
10001af0:	4b0d      	ldr	r3, [pc, #52]	; (10001b28 <SYSTIMER_Init+0x48>)
10001af2:	4c0e      	ldr	r4, [pc, #56]	; (10001b2c <SYSTIMER_Init+0x4c>)
10001af4:	605a      	str	r2, [r3, #4]
10001af6:	6a22      	ldr	r2, [r4, #32]
10001af8:	062d      	lsls	r5, r5, #24
10001afa:	0212      	lsls	r2, r2, #8
10001afc:	0a12      	lsrs	r2, r2, #8
10001afe:	432a      	orrs	r2, r5
10001b00:	6222      	str	r2, [r4, #32]
10001b02:	2207      	movs	r2, #7
10001b04:	6099      	str	r1, [r3, #8]
10001b06:	601a      	str	r2, [r3, #0]
10001b08:	6a23      	ldr	r3, [r4, #32]
10001b0a:	021b      	lsls	r3, r3, #8
10001b0c:	0a1b      	lsrs	r3, r3, #8
10001b0e:	432b      	orrs	r3, r5
10001b10:	6223      	str	r3, [r4, #32]
10001b12:	4b07      	ldr	r3, [pc, #28]	; (10001b30 <SYSTIMER_Init+0x50>)
10001b14:	6019      	str	r1, [r3, #0]
10001b16:	2301      	movs	r3, #1
10001b18:	7003      	strb	r3, [r0, #0]
10001b1a:	2000      	movs	r0, #0
10001b1c:	bd30      	pop	{r4, r5, pc}
10001b1e:	46c0      	nop			; (mov r8, r8)
10001b20:	20000618 	.word	0x20000618
10001b24:	0000bb7f 	.word	0x0000bb7f
10001b28:	e000e010 	.word	0xe000e010
10001b2c:	e000ed00 	.word	0xe000ed00
10001b30:	20000614 	.word	0x20000614

10001b34 <SYSTIMER_GetTickCount>:
10001b34:	4b01      	ldr	r3, [pc, #4]	; (10001b3c <SYSTIMER_GetTickCount+0x8>)
10001b36:	6818      	ldr	r0, [r3, #0]
10001b38:	4770      	bx	lr
10001b3a:	46c0      	nop			; (mov r8, r8)
10001b3c:	20000610 	.word	0x20000610

10001b40 <SPI_SLAVE_lReconfigureRxFIFO>:
10001b40:	b510      	push	{r4, lr}
10001b42:	6843      	ldr	r3, [r0, #4]
10001b44:	1c0c      	adds	r4, r1, #0
10001b46:	3304      	adds	r3, #4
10001b48:	7fd9      	ldrb	r1, [r3, #31]
10001b4a:	2301      	movs	r3, #1
10001b4c:	408b      	lsls	r3, r1
10001b4e:	1e5a      	subs	r2, r3, #1
10001b50:	429c      	cmp	r4, r3
10001b52:	d200      	bcs.n	10001b56 <SPI_SLAVE_lReconfigureRxFIFO+0x16>
10001b54:	1e62      	subs	r2, r4, #1
10001b56:	6800      	ldr	r0, [r0, #0]
10001b58:	f7ff fe10 	bl	1000177c <XMC_USIC_CH_RXFIFO_SetSizeTriggerLimit>
10001b5c:	bd10      	pop	{r4, pc}

10001b5e <SPI_SLAVE_Init>:
10001b5e:	b508      	push	{r3, lr}
10001b60:	6843      	ldr	r3, [r0, #4]
10001b62:	68db      	ldr	r3, [r3, #12]
10001b64:	4798      	blx	r3
10001b66:	bd08      	pop	{r3, pc}

10001b68 <SPI_SLAVE_lTransmitHandler>:
10001b68:	b5f7      	push	{r0, r1, r2, r4, r5, r6, r7, lr}
10001b6a:	6884      	ldr	r4, [r0, #8]
10001b6c:	1c05      	adds	r5, r0, #0
10001b6e:	68e1      	ldr	r1, [r4, #12]
10001b70:	68a3      	ldr	r3, [r4, #8]
10001b72:	7e66      	ldrb	r6, [r4, #25]
10001b74:	4299      	cmp	r1, r3
10001b76:	d232      	bcs.n	10001bde <SPI_SLAVE_lTransmitHandler+0x76>
10001b78:	6843      	ldr	r3, [r0, #4]
10001b7a:	3303      	adds	r3, #3
10001b7c:	7fdb      	ldrb	r3, [r3, #31]
10001b7e:	2b00      	cmp	r3, #0
10001b80:	d01b      	beq.n	10001bba <SPI_SLAVE_lTransmitHandler+0x52>
10001b82:	682f      	ldr	r7, [r5, #0]
10001b84:	1c3b      	adds	r3, r7, #0
10001b86:	33fc      	adds	r3, #252	; 0xfc
10001b88:	699b      	ldr	r3, [r3, #24]
10001b8a:	04db      	lsls	r3, r3, #19
10001b8c:	d44a      	bmi.n	10001c24 <SPI_SLAVE_lTransmitHandler+0xbc>
10001b8e:	68e1      	ldr	r1, [r4, #12]
10001b90:	68a3      	ldr	r3, [r4, #8]
10001b92:	4299      	cmp	r1, r3
10001b94:	d246      	bcs.n	10001c24 <SPI_SLAVE_lTransmitHandler+0xbc>
10001b96:	4371      	muls	r1, r6
10001b98:	6823      	ldr	r3, [r4, #0]
10001b9a:	1c32      	adds	r2, r6, #0
10001b9c:	1859      	adds	r1, r3, r1
10001b9e:	466b      	mov	r3, sp
10001ba0:	1d98      	adds	r0, r3, #6
10001ba2:	f000 fa11 	bl	10001fc8 <memcpy>
10001ba6:	466b      	mov	r3, sp
10001ba8:	7e22      	ldrb	r2, [r4, #24]
10001baa:	88d9      	ldrh	r1, [r3, #6]
10001bac:	1c38      	adds	r0, r7, #0
10001bae:	f7ff fc71 	bl	10001494 <XMC_SPI_CH_Transmit>
10001bb2:	68e3      	ldr	r3, [r4, #12]
10001bb4:	3301      	adds	r3, #1
10001bb6:	60e3      	str	r3, [r4, #12]
10001bb8:	e7e3      	b.n	10001b82 <SPI_SLAVE_lTransmitHandler+0x1a>
10001bba:	466b      	mov	r3, sp
10001bbc:	4371      	muls	r1, r6
10001bbe:	1d9f      	adds	r7, r3, #6
10001bc0:	6823      	ldr	r3, [r4, #0]
10001bc2:	1c32      	adds	r2, r6, #0
10001bc4:	1859      	adds	r1, r3, r1
10001bc6:	1c38      	adds	r0, r7, #0
10001bc8:	f000 f9fe 	bl	10001fc8 <memcpy>
10001bcc:	8839      	ldrh	r1, [r7, #0]
10001bce:	7e22      	ldrb	r2, [r4, #24]
10001bd0:	6828      	ldr	r0, [r5, #0]
10001bd2:	f7ff fc5f 	bl	10001494 <XMC_SPI_CH_Transmit>
10001bd6:	68e3      	ldr	r3, [r4, #12]
10001bd8:	3301      	adds	r3, #1
10001bda:	60e3      	str	r3, [r4, #12]
10001bdc:	e022      	b.n	10001c24 <SPI_SLAVE_lTransmitHandler+0xbc>
10001bde:	6800      	ldr	r0, [r0, #0]
10001be0:	1c03      	adds	r3, r0, #0
10001be2:	33fc      	adds	r3, #252	; 0xfc
10001be4:	699a      	ldr	r2, [r3, #24]
10001be6:	0512      	lsls	r2, r2, #20
10001be8:	d51c      	bpl.n	10001c24 <SPI_SLAVE_lTransmitHandler+0xbc>
10001bea:	686a      	ldr	r2, [r5, #4]
10001bec:	3203      	adds	r2, #3
10001bee:	7fd2      	ldrb	r2, [r2, #31]
10001bf0:	2a00      	cmp	r2, #0
10001bf2:	d004      	beq.n	10001bfe <SPI_SLAVE_lTransmitHandler+0x96>
10001bf4:	68d9      	ldr	r1, [r3, #12]
10001bf6:	4a0c      	ldr	r2, [pc, #48]	; (10001c28 <SPI_SLAVE_lTransmitHandler+0xc0>)
10001bf8:	400a      	ands	r2, r1
10001bfa:	60da      	str	r2, [r3, #12]
10001bfc:	e003      	b.n	10001c06 <SPI_SLAVE_lTransmitHandler+0x9e>
10001bfe:	2180      	movs	r1, #128	; 0x80
10001c00:	0189      	lsls	r1, r1, #6
10001c02:	f7ff fc74 	bl	100014ee <XMC_SPI_CH_DisableEvent>
10001c06:	6829      	ldr	r1, [r5, #0]
10001c08:	227f      	movs	r2, #127	; 0x7f
10001c0a:	6b8b      	ldr	r3, [r1, #56]	; 0x38
10001c0c:	4393      	bics	r3, r2
10001c0e:	b2db      	uxtb	r3, r3
10001c10:	2b80      	cmp	r3, #128	; 0x80
10001c12:	d0f9      	beq.n	10001c08 <SPI_SLAVE_lTransmitHandler+0xa0>
10001c14:	2300      	movs	r3, #0
10001c16:	76a3      	strb	r3, [r4, #26]
10001c18:	6023      	str	r3, [r4, #0]
10001c1a:	686b      	ldr	r3, [r5, #4]
10001c1c:	691b      	ldr	r3, [r3, #16]
10001c1e:	2b00      	cmp	r3, #0
10001c20:	d000      	beq.n	10001c24 <SPI_SLAVE_lTransmitHandler+0xbc>
10001c22:	4798      	blx	r3
10001c24:	bdf7      	pop	{r0, r1, r2, r4, r5, r6, r7, pc}
10001c26:	46c0      	nop			; (mov r8, r8)
10001c28:	bfffffff 	.word	0xbfffffff

10001c2c <SPI_SLAVE_lReceiveHandler>:
10001c2c:	b573      	push	{r0, r1, r4, r5, r6, lr}
10001c2e:	6843      	ldr	r3, [r0, #4]
10001c30:	6884      	ldr	r4, [r0, #8]
10001c32:	3304      	adds	r3, #4
10001c34:	7fdb      	ldrb	r3, [r3, #31]
10001c36:	1c05      	adds	r5, r0, #0
10001c38:	7e66      	ldrb	r6, [r4, #25]
10001c3a:	2b00      	cmp	r3, #0
10001c3c:	d032      	beq.n	10001ca4 <SPI_SLAVE_lReceiveHandler+0x78>
10001c3e:	6828      	ldr	r0, [r5, #0]
10001c40:	1c03      	adds	r3, r0, #0
10001c42:	33fc      	adds	r3, #252	; 0xfc
10001c44:	699b      	ldr	r3, [r3, #24]
10001c46:	071b      	lsls	r3, r3, #28
10001c48:	d423      	bmi.n	10001c92 <SPI_SLAVE_lReceiveHandler+0x66>
10001c4a:	6963      	ldr	r3, [r4, #20]
10001c4c:	6922      	ldr	r2, [r4, #16]
10001c4e:	4293      	cmp	r3, r2
10001c50:	d20e      	bcs.n	10001c70 <SPI_SLAVE_lReceiveHandler+0x44>
10001c52:	f7ff fc40 	bl	100014d6 <XMC_SPI_CH_GetReceivedData>
10001c56:	466b      	mov	r3, sp
10001c58:	1d99      	adds	r1, r3, #6
10001c5a:	8008      	strh	r0, [r1, #0]
10001c5c:	6960      	ldr	r0, [r4, #20]
10001c5e:	6863      	ldr	r3, [r4, #4]
10001c60:	4370      	muls	r0, r6
10001c62:	1c32      	adds	r2, r6, #0
10001c64:	1818      	adds	r0, r3, r0
10001c66:	f000 f9af 	bl	10001fc8 <memcpy>
10001c6a:	6963      	ldr	r3, [r4, #20]
10001c6c:	3301      	adds	r3, #1
10001c6e:	6163      	str	r3, [r4, #20]
10001c70:	6963      	ldr	r3, [r4, #20]
10001c72:	6922      	ldr	r2, [r4, #16]
10001c74:	4293      	cmp	r3, r2
10001c76:	d1e2      	bne.n	10001c3e <SPI_SLAVE_lReceiveHandler+0x12>
10001c78:	2300      	movs	r3, #0
10001c7a:	76e3      	strb	r3, [r4, #27]
10001c7c:	682b      	ldr	r3, [r5, #0]
10001c7e:	4a1c      	ldr	r2, [pc, #112]	; (10001cf0 <SPI_SLAVE_lReceiveHandler+0xc4>)
10001c80:	33fc      	adds	r3, #252	; 0xfc
10001c82:	6919      	ldr	r1, [r3, #16]
10001c84:	400a      	ands	r2, r1
10001c86:	611a      	str	r2, [r3, #16]
10001c88:	686b      	ldr	r3, [r5, #4]
10001c8a:	695b      	ldr	r3, [r3, #20]
10001c8c:	2b00      	cmp	r3, #0
10001c8e:	d000      	beq.n	10001c92 <SPI_SLAVE_lReceiveHandler+0x66>
10001c90:	4798      	blx	r3
10001c92:	6961      	ldr	r1, [r4, #20]
10001c94:	6923      	ldr	r3, [r4, #16]
10001c96:	4299      	cmp	r1, r3
10001c98:	d228      	bcs.n	10001cec <SPI_SLAVE_lReceiveHandler+0xc0>
10001c9a:	1a59      	subs	r1, r3, r1
10001c9c:	1c28      	adds	r0, r5, #0
10001c9e:	f7ff ff4f 	bl	10001b40 <SPI_SLAVE_lReconfigureRxFIFO>
10001ca2:	e023      	b.n	10001cec <SPI_SLAVE_lReceiveHandler+0xc0>
10001ca4:	6963      	ldr	r3, [r4, #20]
10001ca6:	6922      	ldr	r2, [r4, #16]
10001ca8:	4293      	cmp	r3, r2
10001caa:	d20f      	bcs.n	10001ccc <SPI_SLAVE_lReceiveHandler+0xa0>
10001cac:	6800      	ldr	r0, [r0, #0]
10001cae:	f7ff fc12 	bl	100014d6 <XMC_SPI_CH_GetReceivedData>
10001cb2:	466b      	mov	r3, sp
10001cb4:	1d99      	adds	r1, r3, #6
10001cb6:	8008      	strh	r0, [r1, #0]
10001cb8:	6960      	ldr	r0, [r4, #20]
10001cba:	6863      	ldr	r3, [r4, #4]
10001cbc:	4370      	muls	r0, r6
10001cbe:	1c32      	adds	r2, r6, #0
10001cc0:	1818      	adds	r0, r3, r0
10001cc2:	f000 f981 	bl	10001fc8 <memcpy>
10001cc6:	6963      	ldr	r3, [r4, #20]
10001cc8:	3301      	adds	r3, #1
10001cca:	6163      	str	r3, [r4, #20]
10001ccc:	6963      	ldr	r3, [r4, #20]
10001cce:	6922      	ldr	r2, [r4, #16]
10001cd0:	4293      	cmp	r3, r2
10001cd2:	d10b      	bne.n	10001cec <SPI_SLAVE_lReceiveHandler+0xc0>
10001cd4:	2300      	movs	r3, #0
10001cd6:	21c0      	movs	r1, #192	; 0xc0
10001cd8:	76e3      	strb	r3, [r4, #27]
10001cda:	6828      	ldr	r0, [r5, #0]
10001cdc:	0209      	lsls	r1, r1, #8
10001cde:	f7ff fc06 	bl	100014ee <XMC_SPI_CH_DisableEvent>
10001ce2:	686b      	ldr	r3, [r5, #4]
10001ce4:	695b      	ldr	r3, [r3, #20]
10001ce6:	2b00      	cmp	r3, #0
10001ce8:	d000      	beq.n	10001cec <SPI_SLAVE_lReceiveHandler+0xc0>
10001cea:	4798      	blx	r3
10001cec:	bd73      	pop	{r0, r1, r4, r5, r6, pc}
10001cee:	46c0      	nop			; (mov r8, r8)
10001cf0:	9fffffff 	.word	0x9fffffff

10001cf4 <XMC_SPI_CH_SetInputSource.constprop.1>:
10001cf4:	2390      	movs	r3, #144	; 0x90
10001cf6:	2250      	movs	r2, #80	; 0x50
10001cf8:	05db      	lsls	r3, r3, #23
10001cfa:	0080      	lsls	r0, r0, #2
10001cfc:	18c0      	adds	r0, r0, r3
10001cfe:	69c3      	ldr	r3, [r0, #28]
10001d00:	4393      	bics	r3, r2
10001d02:	3a40      	subs	r2, #64	; 0x40
10001d04:	4313      	orrs	r3, r2
10001d06:	61c3      	str	r3, [r0, #28]
10001d08:	69c3      	ldr	r3, [r0, #28]
10001d0a:	3a09      	subs	r2, #9
10001d0c:	4393      	bics	r3, r2
10001d0e:	4319      	orrs	r1, r3
10001d10:	61c1      	str	r1, [r0, #28]
10001d12:	4770      	bx	lr

10001d14 <SPI_SLAVE_0_init>:
10001d14:	b5f8      	push	{r3, r4, r5, r6, r7, lr}
10001d16:	2500      	movs	r5, #0
10001d18:	2490      	movs	r4, #144	; 0x90
10001d1a:	4b49      	ldr	r3, [pc, #292]	; (10001e40 <SPI_SLAVE_0_init+0x12c>)
10001d1c:	4f49      	ldr	r7, [pc, #292]	; (10001e44 <SPI_SLAVE_0_init+0x130>)
10001d1e:	689b      	ldr	r3, [r3, #8]
10001d20:	1c38      	adds	r0, r7, #0
10001d22:	769d      	strb	r5, [r3, #26]
10001d24:	2101      	movs	r1, #1
10001d26:	76dd      	strb	r5, [r3, #27]
10001d28:	4a47      	ldr	r2, [pc, #284]	; (10001e48 <SPI_SLAVE_0_init+0x134>)
10001d2a:	f7ff f9f9 	bl	10001120 <XMC_GPIO_Init>
10001d2e:	1c38      	adds	r0, r7, #0
10001d30:	2104      	movs	r1, #4
10001d32:	4a46      	ldr	r2, [pc, #280]	; (10001e4c <SPI_SLAVE_0_init+0x138>)
10001d34:	05e4      	lsls	r4, r4, #23
10001d36:	f7ff f9f3 	bl	10001120 <XMC_GPIO_Init>
10001d3a:	1c38      	adds	r0, r7, #0
10001d3c:	1c29      	adds	r1, r5, #0
10001d3e:	4a44      	ldr	r2, [pc, #272]	; (10001e50 <SPI_SLAVE_0_init+0x13c>)
10001d40:	f7ff f9ee 	bl	10001120 <XMC_GPIO_Init>
10001d44:	1c20      	adds	r0, r4, #0
10001d46:	4943      	ldr	r1, [pc, #268]	; (10001e54 <SPI_SLAVE_0_init+0x140>)
10001d48:	2201      	movs	r2, #1
10001d4a:	f7ff fb79 	bl	10001440 <XMC_SPI_CH_InitEx>
10001d4e:	2201      	movs	r2, #1
10001d50:	6b63      	ldr	r3, [r4, #52]	; 0x34
10001d52:	1c28      	adds	r0, r5, #0
10001d54:	4393      	bics	r3, r2
10001d56:	6363      	str	r3, [r4, #52]	; 0x34
10001d58:	6b62      	ldr	r2, [r4, #52]	; 0x34
10001d5a:	4b3f      	ldr	r3, [pc, #252]	; (10001e58 <SPI_SLAVE_0_init+0x144>)
10001d5c:	2102      	movs	r1, #2
10001d5e:	4013      	ands	r3, r2
10001d60:	22e0      	movs	r2, #224	; 0xe0
10001d62:	04d2      	lsls	r2, r2, #19
10001d64:	4313      	orrs	r3, r2
10001d66:	6363      	str	r3, [r4, #52]	; 0x34
10001d68:	23fc      	movs	r3, #252	; 0xfc
10001d6a:	6b62      	ldr	r2, [r4, #52]	; 0x34
10001d6c:	039b      	lsls	r3, r3, #14
10001d6e:	4313      	orrs	r3, r2
10001d70:	6363      	str	r3, [r4, #52]	; 0x34
10001d72:	f7ff ffbf 	bl	10001cf4 <XMC_SPI_CH_SetInputSource.constprop.1>
10001d76:	1c29      	adds	r1, r5, #0
10001d78:	2003      	movs	r0, #3
10001d7a:	f7ff ffbb 	bl	10001cf4 <XMC_SPI_CH_SetInputSource.constprop.1>
10001d7e:	1c29      	adds	r1, r5, #0
10001d80:	2004      	movs	r0, #4
10001d82:	f7ff ffb7 	bl	10001cf4 <XMC_SPI_CH_SetInputSource.constprop.1>
10001d86:	2005      	movs	r0, #5
10001d88:	2104      	movs	r1, #4
10001d8a:	f7ff ffb3 	bl	10001cf4 <XMC_SPI_CH_SetInputSource.constprop.1>
10001d8e:	2001      	movs	r0, #1
10001d90:	2103      	movs	r1, #3
10001d92:	f7ff ffaf 	bl	10001cf4 <XMC_SPI_CH_SetInputSource.constprop.1>
10001d96:	2002      	movs	r0, #2
10001d98:	2106      	movs	r1, #6
10001d9a:	f7ff ffab 	bl	10001cf4 <XMC_SPI_CH_SetInputSource.constprop.1>
10001d9e:	2280      	movs	r2, #128	; 0x80
10001da0:	6a63      	ldr	r3, [r4, #36]	; 0x24
10001da2:	0052      	lsls	r2, r2, #1
10001da4:	4313      	orrs	r3, r2
10001da6:	6263      	str	r3, [r4, #36]	; 0x24
10001da8:	1c20      	adds	r0, r4, #0
10001daa:	2104      	movs	r1, #4
10001dac:	3aff      	subs	r2, #255	; 0xff
10001dae:	f7ff fcef 	bl	10001790 <XMC_USIC_CH_SetInterruptNodePointer>
10001db2:	1c20      	adds	r0, r4, #0
10001db4:	1c2a      	adds	r2, r5, #0
10001db6:	2108      	movs	r1, #8
10001db8:	f7ff fcea 	bl	10001790 <XMC_USIC_CH_SetInterruptNodePointer>
10001dbc:	1c20      	adds	r0, r4, #0
10001dbe:	1c2a      	adds	r2, r5, #0
10001dc0:	210c      	movs	r1, #12
10001dc2:	f7ff fce5 	bl	10001790 <XMC_USIC_CH_SetInterruptNodePointer>
10001dc6:	1c20      	adds	r0, r4, #0
10001dc8:	2110      	movs	r1, #16
10001dca:	2202      	movs	r2, #2
10001dcc:	f7ff fce0 	bl	10001790 <XMC_USIC_CH_SetInterruptNodePointer>
10001dd0:	23c2      	movs	r3, #194	; 0xc2
10001dd2:	4e22      	ldr	r6, [pc, #136]	; (10001e5c <SPI_SLAVE_0_init+0x148>)
10001dd4:	009b      	lsls	r3, r3, #2
10001dd6:	58f2      	ldr	r2, [r6, r3]
10001dd8:	4b21      	ldr	r3, [pc, #132]	; (10001e60 <SPI_SLAVE_0_init+0x14c>)
10001dda:	21a0      	movs	r1, #160	; 0xa0
10001ddc:	4013      	ands	r3, r2
10001dde:	22c0      	movs	r2, #192	; 0xc0
10001de0:	0412      	lsls	r2, r2, #16
10001de2:	4313      	orrs	r3, r2
10001de4:	22c2      	movs	r2, #194	; 0xc2
10001de6:	0092      	lsls	r2, r2, #2
10001de8:	50b3      	str	r3, [r6, r2]
10001dea:	200a      	movs	r0, #10
10001dec:	0109      	lsls	r1, r1, #4
10001dee:	f7ff facd 	bl	1000138c <XMC_SCU_SetInterruptControl>
10001df2:	2380      	movs	r3, #128	; 0x80
10001df4:	00db      	lsls	r3, r3, #3
10001df6:	6033      	str	r3, [r6, #0]
10001df8:	3bf8      	subs	r3, #248	; 0xf8
10001dfa:	58f2      	ldr	r2, [r6, r3]
10001dfc:	4b19      	ldr	r3, [pc, #100]	; (10001e64 <SPI_SLAVE_0_init+0x150>)
10001dfe:	2190      	movs	r1, #144	; 0x90
10001e00:	4013      	ands	r3, r2
10001e02:	2280      	movs	r2, #128	; 0x80
10001e04:	0212      	lsls	r2, r2, #8
10001e06:	4313      	orrs	r3, r2
10001e08:	22c2      	movs	r2, #194	; 0xc2
10001e0a:	0092      	lsls	r2, r2, #2
10001e0c:	50b3      	str	r3, [r6, r2]
10001e0e:	2009      	movs	r0, #9
10001e10:	0109      	lsls	r1, r1, #4
10001e12:	f7ff fabb 	bl	1000138c <XMC_SCU_SetInterruptControl>
10001e16:	2380      	movs	r3, #128	; 0x80
10001e18:	009b      	lsls	r3, r3, #2
10001e1a:	6033      	str	r3, [r6, #0]
10001e1c:	220f      	movs	r2, #15
10001e1e:	6c23      	ldr	r3, [r4, #64]	; 0x40
10001e20:	1c38      	adds	r0, r7, #0
10001e22:	4393      	bics	r3, r2
10001e24:	3a0e      	subs	r2, #14
10001e26:	4313      	orrs	r3, r2
10001e28:	6423      	str	r3, [r4, #64]	; 0x40
10001e2a:	2105      	movs	r1, #5
10001e2c:	4a0e      	ldr	r2, [pc, #56]	; (10001e68 <SPI_SLAVE_0_init+0x154>)
10001e2e:	f7ff f977 	bl	10001120 <XMC_GPIO_Init>
10001e32:	1c38      	adds	r0, r7, #0
10001e34:	1c2a      	adds	r2, r5, #0
10001e36:	2105      	movs	r1, #5
10001e38:	f7ff fac4 	bl	100013c4 <XMC_GPIO_SetHardwareControl>
10001e3c:	1c28      	adds	r0, r5, #0
10001e3e:	bdf8      	pop	{r3, r4, r5, r6, r7, pc}
10001e40:	20000578 	.word	0x20000578
10001e44:	40040100 	.word	0x40040100
10001e48:	10002898 	.word	0x10002898
10001e4c:	100028a0 	.word	0x100028a0
10001e50:	10002854 	.word	0x10002854
10001e54:	10002848 	.word	0x10002848
10001e58:	f0ffffff 	.word	0xf0ffffff
10001e5c:	e000e100 	.word	0xe000e100
10001e60:	ff00ffff 	.word	0xff00ffff
10001e64:	ffff00ff 	.word	0xffff00ff
10001e68:	10002890 	.word	0x10002890

10001e6c <IRQ10_Handler>:
10001e6c:	b508      	push	{r3, lr}
10001e6e:	4802      	ldr	r0, [pc, #8]	; (10001e78 <IRQ10_Handler+0xc>)
10001e70:	f7ff fe7a 	bl	10001b68 <SPI_SLAVE_lTransmitHandler>
10001e74:	bd08      	pop	{r3, pc}
10001e76:	46c0      	nop			; (mov r8, r8)
10001e78:	20000578 	.word	0x20000578

10001e7c <IRQ9_Handler>:
10001e7c:	b508      	push	{r3, lr}
10001e7e:	4802      	ldr	r0, [pc, #8]	; (10001e88 <IRQ9_Handler+0xc>)
10001e80:	f7ff fed4 	bl	10001c2c <SPI_SLAVE_lReceiveHandler>
10001e84:	bd08      	pop	{r3, pc}
10001e86:	46c0      	nop			; (mov r8, r8)
10001e88:	20000578 	.word	0x20000578

10001e8c <SystemCoreSetup>:
10001e8c:	2101      	movs	r1, #1
10001e8e:	4a02      	ldr	r2, [pc, #8]	; (10001e98 <SystemCoreSetup+0xc>)
10001e90:	6e93      	ldr	r3, [r2, #104]	; 0x68
10001e92:	438b      	bics	r3, r1
10001e94:	6693      	str	r3, [r2, #104]	; 0x68
10001e96:	4770      	bx	lr
10001e98:	40010000 	.word	0x40010000

10001e9c <CLOCK_XMC1_Init>:
10001e9c:	7803      	ldrb	r3, [r0, #0]
10001e9e:	2b00      	cmp	r3, #0
10001ea0:	d101      	bne.n	10001ea6 <CLOCK_XMC1_Init+0xa>
10001ea2:	3301      	adds	r3, #1
10001ea4:	7003      	strb	r3, [r0, #0]
10001ea6:	2000      	movs	r0, #0
10001ea8:	4770      	bx	lr
	...

10001eac <OSCHP_GetFrequency>:
10001eac:	4800      	ldr	r0, [pc, #0]	; (10001eb0 <OSCHP_GetFrequency+0x4>)
10001eae:	4770      	bx	lr
10001eb0:	01312d00 	.word	0x01312d00

10001eb4 <SystemCoreClockSetup>:
10001eb4:	b530      	push	{r4, r5, lr}
10001eb6:	b085      	sub	sp, #20
10001eb8:	466a      	mov	r2, sp
10001eba:	4b05      	ldr	r3, [pc, #20]	; (10001ed0 <SystemCoreClockSetup+0x1c>)
10001ebc:	4668      	mov	r0, sp
10001ebe:	cb32      	ldmia	r3!, {r1, r4, r5}
10001ec0:	c232      	stmia	r2!, {r1, r4, r5}
10001ec2:	681b      	ldr	r3, [r3, #0]
10001ec4:	6013      	str	r3, [r2, #0]
10001ec6:	f7ff f9e5 	bl	10001294 <XMC_SCU_CLOCK_Init>
10001eca:	b005      	add	sp, #20
10001ecc:	bd30      	pop	{r4, r5, pc}
10001ece:	46c0      	nop			; (mov r8, r8)
10001ed0:	100028a8 	.word	0x100028a8

10001ed4 <DAVE_Init>:
10001ed4:	b508      	push	{r3, lr}
10001ed6:	4809      	ldr	r0, [pc, #36]	; (10001efc <DAVE_Init+0x28>)
10001ed8:	f7ff ffe0 	bl	10001e9c <CLOCK_XMC1_Init>
10001edc:	2800      	cmp	r0, #0
10001ede:	d10c      	bne.n	10001efa <DAVE_Init+0x26>
10001ee0:	4807      	ldr	r0, [pc, #28]	; (10001f00 <DAVE_Init+0x2c>)
10001ee2:	f7ff fcc2 	bl	1000186a <UART_Init>
10001ee6:	2800      	cmp	r0, #0
10001ee8:	d107      	bne.n	10001efa <DAVE_Init+0x26>
10001eea:	4806      	ldr	r0, [pc, #24]	; (10001f04 <DAVE_Init+0x30>)
10001eec:	f7ff fdf8 	bl	10001ae0 <SYSTIMER_Init>
10001ef0:	2800      	cmp	r0, #0
10001ef2:	d102      	bne.n	10001efa <DAVE_Init+0x26>
10001ef4:	4804      	ldr	r0, [pc, #16]	; (10001f08 <DAVE_Init+0x34>)
10001ef6:	f7ff fe32 	bl	10001b5e <SPI_SLAVE_Init>
10001efa:	bd08      	pop	{r3, pc}
10001efc:	2000061d 	.word	0x2000061d
10001f00:	20000550 	.word	0x20000550
10001f04:	2000061c 	.word	0x2000061c
10001f08:	20000578 	.word	0x20000578

10001f0c <main>:
10001f0c:	b530      	push	{r4, r5, lr}
10001f0e:	b08b      	sub	sp, #44	; 0x2c
10001f10:	4914      	ldr	r1, [pc, #80]	; (10001f64 <main+0x58>)
10001f12:	2211      	movs	r2, #17
10001f14:	a805      	add	r0, sp, #20
10001f16:	f000 f857 	bl	10001fc8 <memcpy>
10001f1a:	f7ff ffdb 	bl	10001ed4 <DAVE_Init>
10001f1e:	2800      	cmp	r0, #0
10001f20:	d000      	beq.n	10001f24 <main+0x18>
10001f22:	e7fe      	b.n	10001f22 <main+0x16>
10001f24:	a805      	add	r0, sp, #20
10001f26:	f000 f87b 	bl	10002020 <strlen>
10001f2a:	4c0f      	ldr	r4, [pc, #60]	; (10001f68 <main+0x5c>)
10001f2c:	1c02      	adds	r2, r0, #0
10001f2e:	a905      	add	r1, sp, #20
10001f30:	1c20      	adds	r0, r4, #0
10001f32:	25fa      	movs	r5, #250	; 0xfa
10001f34:	f7ff fc9e 	bl	10001874 <UART_Transmit>
10001f38:	00ad      	lsls	r5, r5, #2
10001f3a:	f7ff fdfb 	bl	10001b34 <SYSTIMER_GetTickCount>
10001f3e:	42a8      	cmp	r0, r5
10001f40:	d9fb      	bls.n	10001f3a <main+0x2e>
10001f42:	23fa      	movs	r3, #250	; 0xfa
10001f44:	009b      	lsls	r3, r3, #2
10001f46:	18ed      	adds	r5, r5, r3
10001f48:	1c2a      	adds	r2, r5, #0
10001f4a:	4908      	ldr	r1, [pc, #32]	; (10001f6c <main+0x60>)
10001f4c:	a801      	add	r0, sp, #4
10001f4e:	f000 f845 	bl	10001fdc <siprintf>
10001f52:	a801      	add	r0, sp, #4
10001f54:	f000 f864 	bl	10002020 <strlen>
10001f58:	a901      	add	r1, sp, #4
10001f5a:	1c02      	adds	r2, r0, #0
10001f5c:	1c20      	adds	r0, r4, #0
10001f5e:	f7ff fc89 	bl	10001874 <UART_Transmit>
10001f62:	e7ea      	b.n	10001f3a <main+0x2e>
10001f64:	100028bc 	.word	0x100028bc
10001f68:	20000550 	.word	0x20000550
10001f6c:	100028b8 	.word	0x100028b8

10001f70 <__errno>:
10001f70:	4b01      	ldr	r3, [pc, #4]	; (10001f78 <__errno+0x8>)
10001f72:	6818      	ldr	r0, [r3, #0]
10001f74:	4770      	bx	lr
10001f76:	46c0      	nop			; (mov r8, r8)
10001f78:	200005e4 	.word	0x200005e4

10001f7c <__libc_init_array>:
10001f7c:	4b0e      	ldr	r3, [pc, #56]	; (10001fb8 <__libc_init_array+0x3c>)
10001f7e:	b570      	push	{r4, r5, r6, lr}
10001f80:	2500      	movs	r5, #0
10001f82:	1c1e      	adds	r6, r3, #0
10001f84:	4c0d      	ldr	r4, [pc, #52]	; (10001fbc <__libc_init_array+0x40>)
10001f86:	1ae4      	subs	r4, r4, r3
10001f88:	10a4      	asrs	r4, r4, #2
10001f8a:	42a5      	cmp	r5, r4
10001f8c:	d004      	beq.n	10001f98 <__libc_init_array+0x1c>
10001f8e:	00ab      	lsls	r3, r5, #2
10001f90:	58f3      	ldr	r3, [r6, r3]
10001f92:	4798      	blx	r3
10001f94:	3501      	adds	r5, #1
10001f96:	e7f8      	b.n	10001f8a <__libc_init_array+0xe>
10001f98:	f7ff fc66 	bl	10001868 <_init>
10001f9c:	4b08      	ldr	r3, [pc, #32]	; (10001fc0 <__libc_init_array+0x44>)
10001f9e:	2500      	movs	r5, #0
10001fa0:	1c1e      	adds	r6, r3, #0
10001fa2:	4c08      	ldr	r4, [pc, #32]	; (10001fc4 <__libc_init_array+0x48>)
10001fa4:	1ae4      	subs	r4, r4, r3
10001fa6:	10a4      	asrs	r4, r4, #2
10001fa8:	42a5      	cmp	r5, r4
10001faa:	d004      	beq.n	10001fb6 <__libc_init_array+0x3a>
10001fac:	00ab      	lsls	r3, r5, #2
10001fae:	58f3      	ldr	r3, [r6, r3]
10001fb0:	4798      	blx	r3
10001fb2:	3501      	adds	r5, #1
10001fb4:	e7f8      	b.n	10001fa8 <__libc_init_array+0x2c>
10001fb6:	bd70      	pop	{r4, r5, r6, pc}
10001fb8:	200005e8 	.word	0x200005e8
10001fbc:	200005e8 	.word	0x200005e8
10001fc0:	200005e8 	.word	0x200005e8
10001fc4:	200005e8 	.word	0x200005e8

10001fc8 <memcpy>:
10001fc8:	2300      	movs	r3, #0
10001fca:	b510      	push	{r4, lr}
10001fcc:	4293      	cmp	r3, r2
10001fce:	d003      	beq.n	10001fd8 <memcpy+0x10>
10001fd0:	5ccc      	ldrb	r4, [r1, r3]
10001fd2:	54c4      	strb	r4, [r0, r3]
10001fd4:	3301      	adds	r3, #1
10001fd6:	e7f9      	b.n	10001fcc <memcpy+0x4>
10001fd8:	bd10      	pop	{r4, pc}
	...

10001fdc <siprintf>:
10001fdc:	b40e      	push	{r1, r2, r3}
10001fde:	b510      	push	{r4, lr}
10001fe0:	b09d      	sub	sp, #116	; 0x74
10001fe2:	a902      	add	r1, sp, #8
10001fe4:	9002      	str	r0, [sp, #8]
10001fe6:	6108      	str	r0, [r1, #16]
10001fe8:	480b      	ldr	r0, [pc, #44]	; (10002018 <siprintf+0x3c>)
10001fea:	2482      	movs	r4, #130	; 0x82
10001fec:	6088      	str	r0, [r1, #8]
10001fee:	6148      	str	r0, [r1, #20]
10001ff0:	2001      	movs	r0, #1
10001ff2:	4240      	negs	r0, r0
10001ff4:	ab1f      	add	r3, sp, #124	; 0x7c
10001ff6:	81c8      	strh	r0, [r1, #14]
10001ff8:	4808      	ldr	r0, [pc, #32]	; (1000201c <siprintf+0x40>)
10001ffa:	cb04      	ldmia	r3!, {r2}
10001ffc:	00a4      	lsls	r4, r4, #2
10001ffe:	6800      	ldr	r0, [r0, #0]
10002000:	9301      	str	r3, [sp, #4]
10002002:	818c      	strh	r4, [r1, #12]
10002004:	f000 f874 	bl	100020f0 <_svfiprintf_r>
10002008:	2300      	movs	r3, #0
1000200a:	9a02      	ldr	r2, [sp, #8]
1000200c:	7013      	strb	r3, [r2, #0]
1000200e:	b01d      	add	sp, #116	; 0x74
10002010:	bc10      	pop	{r4}
10002012:	bc08      	pop	{r3}
10002014:	b003      	add	sp, #12
10002016:	4718      	bx	r3
10002018:	7fffffff 	.word	0x7fffffff
1000201c:	200005e4 	.word	0x200005e4

10002020 <strlen>:
10002020:	2300      	movs	r3, #0
10002022:	5cc2      	ldrb	r2, [r0, r3]
10002024:	3301      	adds	r3, #1
10002026:	2a00      	cmp	r2, #0
10002028:	d1fb      	bne.n	10002022 <strlen+0x2>
1000202a:	1e58      	subs	r0, r3, #1
1000202c:	4770      	bx	lr
	...

10002030 <__ssputs_r>:
10002030:	b5f0      	push	{r4, r5, r6, r7, lr}
10002032:	688e      	ldr	r6, [r1, #8]
10002034:	b085      	sub	sp, #20
10002036:	1c07      	adds	r7, r0, #0
10002038:	1c0c      	adds	r4, r1, #0
1000203a:	9203      	str	r2, [sp, #12]
1000203c:	9301      	str	r3, [sp, #4]
1000203e:	42b3      	cmp	r3, r6
10002040:	d345      	bcc.n	100020ce <__ssputs_r+0x9e>
10002042:	2390      	movs	r3, #144	; 0x90
10002044:	898a      	ldrh	r2, [r1, #12]
10002046:	00db      	lsls	r3, r3, #3
10002048:	421a      	tst	r2, r3
1000204a:	d03d      	beq.n	100020c8 <__ssputs_r+0x98>
1000204c:	2503      	movs	r5, #3
1000204e:	6909      	ldr	r1, [r1, #16]
10002050:	6823      	ldr	r3, [r4, #0]
10002052:	9801      	ldr	r0, [sp, #4]
10002054:	1a5b      	subs	r3, r3, r1
10002056:	9302      	str	r3, [sp, #8]
10002058:	6963      	ldr	r3, [r4, #20]
1000205a:	435d      	muls	r5, r3
1000205c:	0feb      	lsrs	r3, r5, #31
1000205e:	195d      	adds	r5, r3, r5
10002060:	9b02      	ldr	r3, [sp, #8]
10002062:	106d      	asrs	r5, r5, #1
10002064:	3301      	adds	r3, #1
10002066:	181b      	adds	r3, r3, r0
10002068:	429d      	cmp	r5, r3
1000206a:	d200      	bcs.n	1000206e <__ssputs_r+0x3e>
1000206c:	1c1d      	adds	r5, r3, #0
1000206e:	1c38      	adds	r0, r7, #0
10002070:	0553      	lsls	r3, r2, #21
10002072:	d50f      	bpl.n	10002094 <__ssputs_r+0x64>
10002074:	1c29      	adds	r1, r5, #0
10002076:	f000 fb1d 	bl	100026b4 <_malloc_r>
1000207a:	1e06      	subs	r6, r0, #0
1000207c:	d013      	beq.n	100020a6 <__ssputs_r+0x76>
1000207e:	9a02      	ldr	r2, [sp, #8]
10002080:	6921      	ldr	r1, [r4, #16]
10002082:	f7ff ffa1 	bl	10001fc8 <memcpy>
10002086:	89a2      	ldrh	r2, [r4, #12]
10002088:	4b18      	ldr	r3, [pc, #96]	; (100020ec <__ssputs_r+0xbc>)
1000208a:	4013      	ands	r3, r2
1000208c:	2280      	movs	r2, #128	; 0x80
1000208e:	4313      	orrs	r3, r2
10002090:	81a3      	strh	r3, [r4, #12]
10002092:	e011      	b.n	100020b8 <__ssputs_r+0x88>
10002094:	1c2a      	adds	r2, r5, #0
10002096:	f000 fb65 	bl	10002764 <_realloc_r>
1000209a:	1e06      	subs	r6, r0, #0
1000209c:	d10c      	bne.n	100020b8 <__ssputs_r+0x88>
1000209e:	1c38      	adds	r0, r7, #0
100020a0:	6921      	ldr	r1, [r4, #16]
100020a2:	f000 fac1 	bl	10002628 <_free_r>
100020a6:	230c      	movs	r3, #12
100020a8:	2240      	movs	r2, #64	; 0x40
100020aa:	2001      	movs	r0, #1
100020ac:	603b      	str	r3, [r7, #0]
100020ae:	89a3      	ldrh	r3, [r4, #12]
100020b0:	4240      	negs	r0, r0
100020b2:	4313      	orrs	r3, r2
100020b4:	81a3      	strh	r3, [r4, #12]
100020b6:	e017      	b.n	100020e8 <__ssputs_r+0xb8>
100020b8:	9b02      	ldr	r3, [sp, #8]
100020ba:	6126      	str	r6, [r4, #16]
100020bc:	18f6      	adds	r6, r6, r3
100020be:	6026      	str	r6, [r4, #0]
100020c0:	6165      	str	r5, [r4, #20]
100020c2:	9e01      	ldr	r6, [sp, #4]
100020c4:	1aed      	subs	r5, r5, r3
100020c6:	60a5      	str	r5, [r4, #8]
100020c8:	9b01      	ldr	r3, [sp, #4]
100020ca:	42b3      	cmp	r3, r6
100020cc:	d200      	bcs.n	100020d0 <__ssputs_r+0xa0>
100020ce:	9e01      	ldr	r6, [sp, #4]
100020d0:	1c32      	adds	r2, r6, #0
100020d2:	6820      	ldr	r0, [r4, #0]
100020d4:	9903      	ldr	r1, [sp, #12]
100020d6:	f000 fa92 	bl	100025fe <memmove>
100020da:	2000      	movs	r0, #0
100020dc:	68a3      	ldr	r3, [r4, #8]
100020de:	1b9b      	subs	r3, r3, r6
100020e0:	60a3      	str	r3, [r4, #8]
100020e2:	6823      	ldr	r3, [r4, #0]
100020e4:	199e      	adds	r6, r3, r6
100020e6:	6026      	str	r6, [r4, #0]
100020e8:	b005      	add	sp, #20
100020ea:	bdf0      	pop	{r4, r5, r6, r7, pc}
100020ec:	fffffb7f 	.word	0xfffffb7f

100020f0 <_svfiprintf_r>:
100020f0:	b5f0      	push	{r4, r5, r6, r7, lr}
100020f2:	b09f      	sub	sp, #124	; 0x7c
100020f4:	9002      	str	r0, [sp, #8]
100020f6:	9305      	str	r3, [sp, #20]
100020f8:	898b      	ldrh	r3, [r1, #12]
100020fa:	1c0e      	adds	r6, r1, #0
100020fc:	1c17      	adds	r7, r2, #0
100020fe:	061b      	lsls	r3, r3, #24
10002100:	d510      	bpl.n	10002124 <_svfiprintf_r+0x34>
10002102:	690b      	ldr	r3, [r1, #16]
10002104:	2b00      	cmp	r3, #0
10002106:	d10d      	bne.n	10002124 <_svfiprintf_r+0x34>
10002108:	2140      	movs	r1, #64	; 0x40
1000210a:	f000 fad3 	bl	100026b4 <_malloc_r>
1000210e:	6030      	str	r0, [r6, #0]
10002110:	6130      	str	r0, [r6, #16]
10002112:	2800      	cmp	r0, #0
10002114:	d104      	bne.n	10002120 <_svfiprintf_r+0x30>
10002116:	230c      	movs	r3, #12
10002118:	9a02      	ldr	r2, [sp, #8]
1000211a:	3801      	subs	r0, #1
1000211c:	6013      	str	r3, [r2, #0]
1000211e:	e0d0      	b.n	100022c2 <_svfiprintf_r+0x1d2>
10002120:	2340      	movs	r3, #64	; 0x40
10002122:	6173      	str	r3, [r6, #20]
10002124:	2300      	movs	r3, #0
10002126:	ad06      	add	r5, sp, #24
10002128:	616b      	str	r3, [r5, #20]
1000212a:	3320      	adds	r3, #32
1000212c:	766b      	strb	r3, [r5, #25]
1000212e:	3310      	adds	r3, #16
10002130:	76ab      	strb	r3, [r5, #26]
10002132:	1c3c      	adds	r4, r7, #0
10002134:	7823      	ldrb	r3, [r4, #0]
10002136:	2b00      	cmp	r3, #0
10002138:	d103      	bne.n	10002142 <_svfiprintf_r+0x52>
1000213a:	1be3      	subs	r3, r4, r7
1000213c:	9304      	str	r3, [sp, #16]
1000213e:	d012      	beq.n	10002166 <_svfiprintf_r+0x76>
10002140:	e003      	b.n	1000214a <_svfiprintf_r+0x5a>
10002142:	2b25      	cmp	r3, #37	; 0x25
10002144:	d0f9      	beq.n	1000213a <_svfiprintf_r+0x4a>
10002146:	3401      	adds	r4, #1
10002148:	e7f4      	b.n	10002134 <_svfiprintf_r+0x44>
1000214a:	9b04      	ldr	r3, [sp, #16]
1000214c:	9802      	ldr	r0, [sp, #8]
1000214e:	1c31      	adds	r1, r6, #0
10002150:	1c3a      	adds	r2, r7, #0
10002152:	f7ff ff6d 	bl	10002030 <__ssputs_r>
10002156:	1c43      	adds	r3, r0, #1
10002158:	d100      	bne.n	1000215c <_svfiprintf_r+0x6c>
1000215a:	e0ac      	b.n	100022b6 <_svfiprintf_r+0x1c6>
1000215c:	696a      	ldr	r2, [r5, #20]
1000215e:	9b04      	ldr	r3, [sp, #16]
10002160:	4694      	mov	ip, r2
10002162:	4463      	add	r3, ip
10002164:	616b      	str	r3, [r5, #20]
10002166:	7823      	ldrb	r3, [r4, #0]
10002168:	2b00      	cmp	r3, #0
1000216a:	d100      	bne.n	1000216e <_svfiprintf_r+0x7e>
1000216c:	e0a3      	b.n	100022b6 <_svfiprintf_r+0x1c6>
1000216e:	2201      	movs	r2, #1
10002170:	2300      	movs	r3, #0
10002172:	4252      	negs	r2, r2
10002174:	606a      	str	r2, [r5, #4]
10002176:	a902      	add	r1, sp, #8
10002178:	3254      	adds	r2, #84	; 0x54
1000217a:	1852      	adds	r2, r2, r1
1000217c:	3401      	adds	r4, #1
1000217e:	602b      	str	r3, [r5, #0]
10002180:	60eb      	str	r3, [r5, #12]
10002182:	60ab      	str	r3, [r5, #8]
10002184:	7013      	strb	r3, [r2, #0]
10002186:	65ab      	str	r3, [r5, #88]	; 0x58
10002188:	4f4f      	ldr	r7, [pc, #316]	; (100022c8 <_svfiprintf_r+0x1d8>)
1000218a:	7821      	ldrb	r1, [r4, #0]
1000218c:	1c38      	adds	r0, r7, #0
1000218e:	2205      	movs	r2, #5
10002190:	f000 fa2a 	bl	100025e8 <memchr>
10002194:	2800      	cmp	r0, #0
10002196:	d008      	beq.n	100021aa <_svfiprintf_r+0xba>
10002198:	1bc0      	subs	r0, r0, r7
1000219a:	2701      	movs	r7, #1
1000219c:	4087      	lsls	r7, r0
1000219e:	1c38      	adds	r0, r7, #0
100021a0:	682b      	ldr	r3, [r5, #0]
100021a2:	3401      	adds	r4, #1
100021a4:	4318      	orrs	r0, r3
100021a6:	6028      	str	r0, [r5, #0]
100021a8:	e7ee      	b.n	10002188 <_svfiprintf_r+0x98>
100021aa:	682b      	ldr	r3, [r5, #0]
100021ac:	06da      	lsls	r2, r3, #27
100021ae:	d504      	bpl.n	100021ba <_svfiprintf_r+0xca>
100021b0:	2253      	movs	r2, #83	; 0x53
100021b2:	2120      	movs	r1, #32
100021b4:	a802      	add	r0, sp, #8
100021b6:	1812      	adds	r2, r2, r0
100021b8:	7011      	strb	r1, [r2, #0]
100021ba:	071a      	lsls	r2, r3, #28
100021bc:	d504      	bpl.n	100021c8 <_svfiprintf_r+0xd8>
100021be:	2253      	movs	r2, #83	; 0x53
100021c0:	212b      	movs	r1, #43	; 0x2b
100021c2:	a802      	add	r0, sp, #8
100021c4:	1812      	adds	r2, r2, r0
100021c6:	7011      	strb	r1, [r2, #0]
100021c8:	7822      	ldrb	r2, [r4, #0]
100021ca:	2a2a      	cmp	r2, #42	; 0x2a
100021cc:	d001      	beq.n	100021d2 <_svfiprintf_r+0xe2>
100021ce:	9b09      	ldr	r3, [sp, #36]	; 0x24
100021d0:	e00e      	b.n	100021f0 <_svfiprintf_r+0x100>
100021d2:	9a05      	ldr	r2, [sp, #20]
100021d4:	1d11      	adds	r1, r2, #4
100021d6:	6812      	ldr	r2, [r2, #0]
100021d8:	9105      	str	r1, [sp, #20]
100021da:	2a00      	cmp	r2, #0
100021dc:	db01      	blt.n	100021e2 <_svfiprintf_r+0xf2>
100021de:	9209      	str	r2, [sp, #36]	; 0x24
100021e0:	e004      	b.n	100021ec <_svfiprintf_r+0xfc>
100021e2:	4252      	negs	r2, r2
100021e4:	60ea      	str	r2, [r5, #12]
100021e6:	2202      	movs	r2, #2
100021e8:	4313      	orrs	r3, r2
100021ea:	602b      	str	r3, [r5, #0]
100021ec:	3401      	adds	r4, #1
100021ee:	e009      	b.n	10002204 <_svfiprintf_r+0x114>
100021f0:	7822      	ldrb	r2, [r4, #0]
100021f2:	3a30      	subs	r2, #48	; 0x30
100021f4:	2a09      	cmp	r2, #9
100021f6:	d804      	bhi.n	10002202 <_svfiprintf_r+0x112>
100021f8:	210a      	movs	r1, #10
100021fa:	434b      	muls	r3, r1
100021fc:	3401      	adds	r4, #1
100021fe:	189b      	adds	r3, r3, r2
10002200:	e7f6      	b.n	100021f0 <_svfiprintf_r+0x100>
10002202:	9309      	str	r3, [sp, #36]	; 0x24
10002204:	7823      	ldrb	r3, [r4, #0]
10002206:	2b2e      	cmp	r3, #46	; 0x2e
10002208:	d118      	bne.n	1000223c <_svfiprintf_r+0x14c>
1000220a:	7863      	ldrb	r3, [r4, #1]
1000220c:	2b2a      	cmp	r3, #42	; 0x2a
1000220e:	d109      	bne.n	10002224 <_svfiprintf_r+0x134>
10002210:	9b05      	ldr	r3, [sp, #20]
10002212:	3402      	adds	r4, #2
10002214:	1d1a      	adds	r2, r3, #4
10002216:	681b      	ldr	r3, [r3, #0]
10002218:	9205      	str	r2, [sp, #20]
1000221a:	2b00      	cmp	r3, #0
1000221c:	da0d      	bge.n	1000223a <_svfiprintf_r+0x14a>
1000221e:	2301      	movs	r3, #1
10002220:	425b      	negs	r3, r3
10002222:	e00a      	b.n	1000223a <_svfiprintf_r+0x14a>
10002224:	2300      	movs	r3, #0
10002226:	3401      	adds	r4, #1
10002228:	7822      	ldrb	r2, [r4, #0]
1000222a:	3a30      	subs	r2, #48	; 0x30
1000222c:	2a09      	cmp	r2, #9
1000222e:	d804      	bhi.n	1000223a <_svfiprintf_r+0x14a>
10002230:	210a      	movs	r1, #10
10002232:	434b      	muls	r3, r1
10002234:	3401      	adds	r4, #1
10002236:	189b      	adds	r3, r3, r2
10002238:	e7f6      	b.n	10002228 <_svfiprintf_r+0x138>
1000223a:	9307      	str	r3, [sp, #28]
1000223c:	4f23      	ldr	r7, [pc, #140]	; (100022cc <_svfiprintf_r+0x1dc>)
1000223e:	7821      	ldrb	r1, [r4, #0]
10002240:	1c38      	adds	r0, r7, #0
10002242:	2203      	movs	r2, #3
10002244:	f000 f9d0 	bl	100025e8 <memchr>
10002248:	2800      	cmp	r0, #0
1000224a:	d007      	beq.n	1000225c <_svfiprintf_r+0x16c>
1000224c:	1bc0      	subs	r0, r0, r7
1000224e:	2740      	movs	r7, #64	; 0x40
10002250:	4087      	lsls	r7, r0
10002252:	1c38      	adds	r0, r7, #0
10002254:	682b      	ldr	r3, [r5, #0]
10002256:	3401      	adds	r4, #1
10002258:	4318      	orrs	r0, r3
1000225a:	6028      	str	r0, [r5, #0]
1000225c:	7821      	ldrb	r1, [r4, #0]
1000225e:	481c      	ldr	r0, [pc, #112]	; (100022d0 <_svfiprintf_r+0x1e0>)
10002260:	2206      	movs	r2, #6
10002262:	1c67      	adds	r7, r4, #1
10002264:	7629      	strb	r1, [r5, #24]
10002266:	f000 f9bf 	bl	100025e8 <memchr>
1000226a:	2800      	cmp	r0, #0
1000226c:	d012      	beq.n	10002294 <_svfiprintf_r+0x1a4>
1000226e:	4b19      	ldr	r3, [pc, #100]	; (100022d4 <_svfiprintf_r+0x1e4>)
10002270:	2b00      	cmp	r3, #0
10002272:	d106      	bne.n	10002282 <_svfiprintf_r+0x192>
10002274:	2207      	movs	r2, #7
10002276:	9b05      	ldr	r3, [sp, #20]
10002278:	3307      	adds	r3, #7
1000227a:	4393      	bics	r3, r2
1000227c:	3308      	adds	r3, #8
1000227e:	9305      	str	r3, [sp, #20]
10002280:	e014      	b.n	100022ac <_svfiprintf_r+0x1bc>
10002282:	ab05      	add	r3, sp, #20
10002284:	9300      	str	r3, [sp, #0]
10002286:	9802      	ldr	r0, [sp, #8]
10002288:	1c29      	adds	r1, r5, #0
1000228a:	1c32      	adds	r2, r6, #0
1000228c:	4b12      	ldr	r3, [pc, #72]	; (100022d8 <_svfiprintf_r+0x1e8>)
1000228e:	e000      	b.n	10002292 <_svfiprintf_r+0x1a2>
10002290:	bf00      	nop
10002292:	e007      	b.n	100022a4 <_svfiprintf_r+0x1b4>
10002294:	ab05      	add	r3, sp, #20
10002296:	9300      	str	r3, [sp, #0]
10002298:	9802      	ldr	r0, [sp, #8]
1000229a:	1c29      	adds	r1, r5, #0
1000229c:	1c32      	adds	r2, r6, #0
1000229e:	4b0e      	ldr	r3, [pc, #56]	; (100022d8 <_svfiprintf_r+0x1e8>)
100022a0:	f000 f88a 	bl	100023b8 <_printf_i>
100022a4:	9003      	str	r0, [sp, #12]
100022a6:	9b03      	ldr	r3, [sp, #12]
100022a8:	3301      	adds	r3, #1
100022aa:	d004      	beq.n	100022b6 <_svfiprintf_r+0x1c6>
100022ac:	696b      	ldr	r3, [r5, #20]
100022ae:	9a03      	ldr	r2, [sp, #12]
100022b0:	189b      	adds	r3, r3, r2
100022b2:	616b      	str	r3, [r5, #20]
100022b4:	e73d      	b.n	10002132 <_svfiprintf_r+0x42>
100022b6:	89b3      	ldrh	r3, [r6, #12]
100022b8:	980b      	ldr	r0, [sp, #44]	; 0x2c
100022ba:	065b      	lsls	r3, r3, #25
100022bc:	d501      	bpl.n	100022c2 <_svfiprintf_r+0x1d2>
100022be:	2001      	movs	r0, #1
100022c0:	4240      	negs	r0, r0
100022c2:	b01f      	add	sp, #124	; 0x7c
100022c4:	bdf0      	pop	{r4, r5, r6, r7, pc}
100022c6:	46c0      	nop			; (mov r8, r8)
100022c8:	100028cf 	.word	0x100028cf
100022cc:	100028d5 	.word	0x100028d5
100022d0:	100028d9 	.word	0x100028d9
100022d4:	00000000 	.word	0x00000000
100022d8:	10002031 	.word	0x10002031

100022dc <_printf_common>:
100022dc:	b5f7      	push	{r0, r1, r2, r4, r5, r6, r7, lr}
100022de:	1c17      	adds	r7, r2, #0
100022e0:	9301      	str	r3, [sp, #4]
100022e2:	690a      	ldr	r2, [r1, #16]
100022e4:	688b      	ldr	r3, [r1, #8]
100022e6:	9000      	str	r0, [sp, #0]
100022e8:	1c0c      	adds	r4, r1, #0
100022ea:	4293      	cmp	r3, r2
100022ec:	da00      	bge.n	100022f0 <_printf_common+0x14>
100022ee:	1c13      	adds	r3, r2, #0
100022f0:	1c22      	adds	r2, r4, #0
100022f2:	603b      	str	r3, [r7, #0]
100022f4:	3243      	adds	r2, #67	; 0x43
100022f6:	7812      	ldrb	r2, [r2, #0]
100022f8:	2a00      	cmp	r2, #0
100022fa:	d001      	beq.n	10002300 <_printf_common+0x24>
100022fc:	3301      	adds	r3, #1
100022fe:	603b      	str	r3, [r7, #0]
10002300:	6823      	ldr	r3, [r4, #0]
10002302:	069b      	lsls	r3, r3, #26
10002304:	d502      	bpl.n	1000230c <_printf_common+0x30>
10002306:	683b      	ldr	r3, [r7, #0]
10002308:	3302      	adds	r3, #2
1000230a:	603b      	str	r3, [r7, #0]
1000230c:	2506      	movs	r5, #6
1000230e:	6823      	ldr	r3, [r4, #0]
10002310:	401d      	ands	r5, r3
10002312:	d01e      	beq.n	10002352 <_printf_common+0x76>
10002314:	1c23      	adds	r3, r4, #0
10002316:	3343      	adds	r3, #67	; 0x43
10002318:	781b      	ldrb	r3, [r3, #0]
1000231a:	1e5a      	subs	r2, r3, #1
1000231c:	4193      	sbcs	r3, r2
1000231e:	6822      	ldr	r2, [r4, #0]
10002320:	0692      	lsls	r2, r2, #26
10002322:	d51c      	bpl.n	1000235e <_printf_common+0x82>
10002324:	2030      	movs	r0, #48	; 0x30
10002326:	18e1      	adds	r1, r4, r3
10002328:	3140      	adds	r1, #64	; 0x40
1000232a:	70c8      	strb	r0, [r1, #3]
1000232c:	1c21      	adds	r1, r4, #0
1000232e:	1c5a      	adds	r2, r3, #1
10002330:	3145      	adds	r1, #69	; 0x45
10002332:	7809      	ldrb	r1, [r1, #0]
10002334:	18a2      	adds	r2, r4, r2
10002336:	3240      	adds	r2, #64	; 0x40
10002338:	3302      	adds	r3, #2
1000233a:	70d1      	strb	r1, [r2, #3]
1000233c:	e00f      	b.n	1000235e <_printf_common+0x82>
1000233e:	1c22      	adds	r2, r4, #0
10002340:	2301      	movs	r3, #1
10002342:	9800      	ldr	r0, [sp, #0]
10002344:	9901      	ldr	r1, [sp, #4]
10002346:	3219      	adds	r2, #25
10002348:	9e08      	ldr	r6, [sp, #32]
1000234a:	47b0      	blx	r6
1000234c:	1c43      	adds	r3, r0, #1
1000234e:	d00e      	beq.n	1000236e <_printf_common+0x92>
10002350:	3501      	adds	r5, #1
10002352:	68e3      	ldr	r3, [r4, #12]
10002354:	683a      	ldr	r2, [r7, #0]
10002356:	1a9b      	subs	r3, r3, r2
10002358:	429d      	cmp	r5, r3
1000235a:	dbf0      	blt.n	1000233e <_printf_common+0x62>
1000235c:	e7da      	b.n	10002314 <_printf_common+0x38>
1000235e:	1c22      	adds	r2, r4, #0
10002360:	9800      	ldr	r0, [sp, #0]
10002362:	9901      	ldr	r1, [sp, #4]
10002364:	3243      	adds	r2, #67	; 0x43
10002366:	9d08      	ldr	r5, [sp, #32]
10002368:	47a8      	blx	r5
1000236a:	1c43      	adds	r3, r0, #1
1000236c:	d102      	bne.n	10002374 <_printf_common+0x98>
1000236e:	2001      	movs	r0, #1
10002370:	4240      	negs	r0, r0
10002372:	e020      	b.n	100023b6 <_printf_common+0xda>
10002374:	2306      	movs	r3, #6
10002376:	6820      	ldr	r0, [r4, #0]
10002378:	68e1      	ldr	r1, [r4, #12]
1000237a:	683a      	ldr	r2, [r7, #0]
1000237c:	4003      	ands	r3, r0
1000237e:	2500      	movs	r5, #0
10002380:	2b04      	cmp	r3, #4
10002382:	d103      	bne.n	1000238c <_printf_common+0xb0>
10002384:	1a8d      	subs	r5, r1, r2
10002386:	43eb      	mvns	r3, r5
10002388:	17db      	asrs	r3, r3, #31
1000238a:	401d      	ands	r5, r3
1000238c:	68a3      	ldr	r3, [r4, #8]
1000238e:	6922      	ldr	r2, [r4, #16]
10002390:	4293      	cmp	r3, r2
10002392:	dd01      	ble.n	10002398 <_printf_common+0xbc>
10002394:	1a9b      	subs	r3, r3, r2
10002396:	18ed      	adds	r5, r5, r3
10002398:	2700      	movs	r7, #0
1000239a:	42af      	cmp	r7, r5
1000239c:	da0a      	bge.n	100023b4 <_printf_common+0xd8>
1000239e:	1c22      	adds	r2, r4, #0
100023a0:	2301      	movs	r3, #1
100023a2:	9800      	ldr	r0, [sp, #0]
100023a4:	9901      	ldr	r1, [sp, #4]
100023a6:	321a      	adds	r2, #26
100023a8:	9e08      	ldr	r6, [sp, #32]
100023aa:	47b0      	blx	r6
100023ac:	1c43      	adds	r3, r0, #1
100023ae:	d0de      	beq.n	1000236e <_printf_common+0x92>
100023b0:	3701      	adds	r7, #1
100023b2:	e7f2      	b.n	1000239a <_printf_common+0xbe>
100023b4:	2000      	movs	r0, #0
100023b6:	bdfe      	pop	{r1, r2, r3, r4, r5, r6, r7, pc}

100023b8 <_printf_i>:
100023b8:	b5f0      	push	{r4, r5, r6, r7, lr}
100023ba:	b08b      	sub	sp, #44	; 0x2c
100023bc:	9206      	str	r2, [sp, #24]
100023be:	1c0a      	adds	r2, r1, #0
100023c0:	3243      	adds	r2, #67	; 0x43
100023c2:	9307      	str	r3, [sp, #28]
100023c4:	9005      	str	r0, [sp, #20]
100023c6:	9204      	str	r2, [sp, #16]
100023c8:	7e0a      	ldrb	r2, [r1, #24]
100023ca:	1c0c      	adds	r4, r1, #0
100023cc:	9b10      	ldr	r3, [sp, #64]	; 0x40
100023ce:	2a6e      	cmp	r2, #110	; 0x6e
100023d0:	d100      	bne.n	100023d4 <_printf_i+0x1c>
100023d2:	e0a8      	b.n	10002526 <_printf_i+0x16e>
100023d4:	d811      	bhi.n	100023fa <_printf_i+0x42>
100023d6:	2a63      	cmp	r2, #99	; 0x63
100023d8:	d022      	beq.n	10002420 <_printf_i+0x68>
100023da:	d809      	bhi.n	100023f0 <_printf_i+0x38>
100023dc:	2a00      	cmp	r2, #0
100023de:	d100      	bne.n	100023e2 <_printf_i+0x2a>
100023e0:	e0b2      	b.n	10002548 <_printf_i+0x190>
100023e2:	2a58      	cmp	r2, #88	; 0x58
100023e4:	d000      	beq.n	100023e8 <_printf_i+0x30>
100023e6:	e0c2      	b.n	1000256e <_printf_i+0x1b6>
100023e8:	3145      	adds	r1, #69	; 0x45
100023ea:	700a      	strb	r2, [r1, #0]
100023ec:	4a7c      	ldr	r2, [pc, #496]	; (100025e0 <_printf_i+0x228>)
100023ee:	e04f      	b.n	10002490 <_printf_i+0xd8>
100023f0:	2a64      	cmp	r2, #100	; 0x64
100023f2:	d01d      	beq.n	10002430 <_printf_i+0x78>
100023f4:	2a69      	cmp	r2, #105	; 0x69
100023f6:	d01b      	beq.n	10002430 <_printf_i+0x78>
100023f8:	e0b9      	b.n	1000256e <_printf_i+0x1b6>
100023fa:	2a73      	cmp	r2, #115	; 0x73
100023fc:	d100      	bne.n	10002400 <_printf_i+0x48>
100023fe:	e0a7      	b.n	10002550 <_printf_i+0x198>
10002400:	d809      	bhi.n	10002416 <_printf_i+0x5e>
10002402:	2a6f      	cmp	r2, #111	; 0x6f
10002404:	d029      	beq.n	1000245a <_printf_i+0xa2>
10002406:	2a70      	cmp	r2, #112	; 0x70
10002408:	d000      	beq.n	1000240c <_printf_i+0x54>
1000240a:	e0b0      	b.n	1000256e <_printf_i+0x1b6>
1000240c:	2220      	movs	r2, #32
1000240e:	6809      	ldr	r1, [r1, #0]
10002410:	430a      	orrs	r2, r1
10002412:	6022      	str	r2, [r4, #0]
10002414:	e037      	b.n	10002486 <_printf_i+0xce>
10002416:	2a75      	cmp	r2, #117	; 0x75
10002418:	d01f      	beq.n	1000245a <_printf_i+0xa2>
1000241a:	2a78      	cmp	r2, #120	; 0x78
1000241c:	d033      	beq.n	10002486 <_printf_i+0xce>
1000241e:	e0a6      	b.n	1000256e <_printf_i+0x1b6>
10002420:	1c0d      	adds	r5, r1, #0
10002422:	681a      	ldr	r2, [r3, #0]
10002424:	3542      	adds	r5, #66	; 0x42
10002426:	1d11      	adds	r1, r2, #4
10002428:	6019      	str	r1, [r3, #0]
1000242a:	6813      	ldr	r3, [r2, #0]
1000242c:	702b      	strb	r3, [r5, #0]
1000242e:	e0a1      	b.n	10002574 <_printf_i+0x1bc>
10002430:	6821      	ldr	r1, [r4, #0]
10002432:	681a      	ldr	r2, [r3, #0]
10002434:	0608      	lsls	r0, r1, #24
10002436:	d503      	bpl.n	10002440 <_printf_i+0x88>
10002438:	1d11      	adds	r1, r2, #4
1000243a:	6019      	str	r1, [r3, #0]
1000243c:	6816      	ldr	r6, [r2, #0]
1000243e:	e005      	b.n	1000244c <_printf_i+0x94>
10002440:	0649      	lsls	r1, r1, #25
10002442:	d5f9      	bpl.n	10002438 <_printf_i+0x80>
10002444:	1d11      	adds	r1, r2, #4
10002446:	6019      	str	r1, [r3, #0]
10002448:	2300      	movs	r3, #0
1000244a:	5ed6      	ldrsh	r6, [r2, r3]
1000244c:	2e00      	cmp	r6, #0
1000244e:	da3b      	bge.n	100024c8 <_printf_i+0x110>
10002450:	232d      	movs	r3, #45	; 0x2d
10002452:	9a04      	ldr	r2, [sp, #16]
10002454:	4276      	negs	r6, r6
10002456:	7013      	strb	r3, [r2, #0]
10002458:	e036      	b.n	100024c8 <_printf_i+0x110>
1000245a:	6821      	ldr	r1, [r4, #0]
1000245c:	681a      	ldr	r2, [r3, #0]
1000245e:	0608      	lsls	r0, r1, #24
10002460:	d503      	bpl.n	1000246a <_printf_i+0xb2>
10002462:	1d11      	adds	r1, r2, #4
10002464:	6019      	str	r1, [r3, #0]
10002466:	6816      	ldr	r6, [r2, #0]
10002468:	e005      	b.n	10002476 <_printf_i+0xbe>
1000246a:	0649      	lsls	r1, r1, #25
1000246c:	d5f9      	bpl.n	10002462 <_printf_i+0xaa>
1000246e:	1d11      	adds	r1, r2, #4
10002470:	6019      	str	r1, [r3, #0]
10002472:	6816      	ldr	r6, [r2, #0]
10002474:	b2b6      	uxth	r6, r6
10002476:	4b5a      	ldr	r3, [pc, #360]	; (100025e0 <_printf_i+0x228>)
10002478:	7e22      	ldrb	r2, [r4, #24]
1000247a:	9303      	str	r3, [sp, #12]
1000247c:	270a      	movs	r7, #10
1000247e:	2a6f      	cmp	r2, #111	; 0x6f
10002480:	d11d      	bne.n	100024be <_printf_i+0x106>
10002482:	2708      	movs	r7, #8
10002484:	e01b      	b.n	100024be <_printf_i+0x106>
10002486:	1c22      	adds	r2, r4, #0
10002488:	2178      	movs	r1, #120	; 0x78
1000248a:	3245      	adds	r2, #69	; 0x45
1000248c:	7011      	strb	r1, [r2, #0]
1000248e:	4a55      	ldr	r2, [pc, #340]	; (100025e4 <_printf_i+0x22c>)
10002490:	6819      	ldr	r1, [r3, #0]
10002492:	9203      	str	r2, [sp, #12]
10002494:	1d08      	adds	r0, r1, #4
10002496:	6822      	ldr	r2, [r4, #0]
10002498:	6018      	str	r0, [r3, #0]
1000249a:	680e      	ldr	r6, [r1, #0]
1000249c:	0610      	lsls	r0, r2, #24
1000249e:	d402      	bmi.n	100024a6 <_printf_i+0xee>
100024a0:	0650      	lsls	r0, r2, #25
100024a2:	d500      	bpl.n	100024a6 <_printf_i+0xee>
100024a4:	b2b6      	uxth	r6, r6
100024a6:	07d3      	lsls	r3, r2, #31
100024a8:	d502      	bpl.n	100024b0 <_printf_i+0xf8>
100024aa:	2320      	movs	r3, #32
100024ac:	431a      	orrs	r2, r3
100024ae:	6022      	str	r2, [r4, #0]
100024b0:	2710      	movs	r7, #16
100024b2:	2e00      	cmp	r6, #0
100024b4:	d103      	bne.n	100024be <_printf_i+0x106>
100024b6:	2320      	movs	r3, #32
100024b8:	6822      	ldr	r2, [r4, #0]
100024ba:	439a      	bics	r2, r3
100024bc:	6022      	str	r2, [r4, #0]
100024be:	1c23      	adds	r3, r4, #0
100024c0:	2200      	movs	r2, #0
100024c2:	3343      	adds	r3, #67	; 0x43
100024c4:	701a      	strb	r2, [r3, #0]
100024c6:	e002      	b.n	100024ce <_printf_i+0x116>
100024c8:	270a      	movs	r7, #10
100024ca:	4b45      	ldr	r3, [pc, #276]	; (100025e0 <_printf_i+0x228>)
100024cc:	9303      	str	r3, [sp, #12]
100024ce:	6863      	ldr	r3, [r4, #4]
100024d0:	60a3      	str	r3, [r4, #8]
100024d2:	2b00      	cmp	r3, #0
100024d4:	db03      	blt.n	100024de <_printf_i+0x126>
100024d6:	2204      	movs	r2, #4
100024d8:	6821      	ldr	r1, [r4, #0]
100024da:	4391      	bics	r1, r2
100024dc:	6021      	str	r1, [r4, #0]
100024de:	2e00      	cmp	r6, #0
100024e0:	d102      	bne.n	100024e8 <_printf_i+0x130>
100024e2:	9d04      	ldr	r5, [sp, #16]
100024e4:	2b00      	cmp	r3, #0
100024e6:	d00e      	beq.n	10002506 <_printf_i+0x14e>
100024e8:	9d04      	ldr	r5, [sp, #16]
100024ea:	1c30      	adds	r0, r6, #0
100024ec:	1c39      	adds	r1, r7, #0
100024ee:	f7fe ff97 	bl	10001420 <__aeabi_uidivmod>
100024f2:	9b03      	ldr	r3, [sp, #12]
100024f4:	3d01      	subs	r5, #1
100024f6:	5c5b      	ldrb	r3, [r3, r1]
100024f8:	1c30      	adds	r0, r6, #0
100024fa:	702b      	strb	r3, [r5, #0]
100024fc:	1c39      	adds	r1, r7, #0
100024fe:	f7fe ff6f 	bl	100013e0 <__aeabi_uidiv>
10002502:	1e06      	subs	r6, r0, #0
10002504:	d1f1      	bne.n	100024ea <_printf_i+0x132>
10002506:	2f08      	cmp	r7, #8
10002508:	d109      	bne.n	1000251e <_printf_i+0x166>
1000250a:	6823      	ldr	r3, [r4, #0]
1000250c:	07db      	lsls	r3, r3, #31
1000250e:	d506      	bpl.n	1000251e <_printf_i+0x166>
10002510:	6863      	ldr	r3, [r4, #4]
10002512:	6922      	ldr	r2, [r4, #16]
10002514:	4293      	cmp	r3, r2
10002516:	dc02      	bgt.n	1000251e <_printf_i+0x166>
10002518:	2330      	movs	r3, #48	; 0x30
1000251a:	3d01      	subs	r5, #1
1000251c:	702b      	strb	r3, [r5, #0]
1000251e:	9b04      	ldr	r3, [sp, #16]
10002520:	1b5b      	subs	r3, r3, r5
10002522:	6123      	str	r3, [r4, #16]
10002524:	e02b      	b.n	1000257e <_printf_i+0x1c6>
10002526:	6809      	ldr	r1, [r1, #0]
10002528:	681a      	ldr	r2, [r3, #0]
1000252a:	0608      	lsls	r0, r1, #24
1000252c:	d407      	bmi.n	1000253e <_printf_i+0x186>
1000252e:	0649      	lsls	r1, r1, #25
10002530:	d505      	bpl.n	1000253e <_printf_i+0x186>
10002532:	1d11      	adds	r1, r2, #4
10002534:	6019      	str	r1, [r3, #0]
10002536:	6813      	ldr	r3, [r2, #0]
10002538:	8aa2      	ldrh	r2, [r4, #20]
1000253a:	801a      	strh	r2, [r3, #0]
1000253c:	e004      	b.n	10002548 <_printf_i+0x190>
1000253e:	1d11      	adds	r1, r2, #4
10002540:	6019      	str	r1, [r3, #0]
10002542:	6813      	ldr	r3, [r2, #0]
10002544:	6962      	ldr	r2, [r4, #20]
10002546:	601a      	str	r2, [r3, #0]
10002548:	2300      	movs	r3, #0
1000254a:	9d04      	ldr	r5, [sp, #16]
1000254c:	6123      	str	r3, [r4, #16]
1000254e:	e016      	b.n	1000257e <_printf_i+0x1c6>
10002550:	681a      	ldr	r2, [r3, #0]
10002552:	1d11      	adds	r1, r2, #4
10002554:	6019      	str	r1, [r3, #0]
10002556:	6815      	ldr	r5, [r2, #0]
10002558:	2100      	movs	r1, #0
1000255a:	1c28      	adds	r0, r5, #0
1000255c:	6862      	ldr	r2, [r4, #4]
1000255e:	f000 f843 	bl	100025e8 <memchr>
10002562:	2800      	cmp	r0, #0
10002564:	d001      	beq.n	1000256a <_printf_i+0x1b2>
10002566:	1b40      	subs	r0, r0, r5
10002568:	6060      	str	r0, [r4, #4]
1000256a:	6863      	ldr	r3, [r4, #4]
1000256c:	e003      	b.n	10002576 <_printf_i+0x1be>
1000256e:	1c25      	adds	r5, r4, #0
10002570:	3542      	adds	r5, #66	; 0x42
10002572:	702a      	strb	r2, [r5, #0]
10002574:	2301      	movs	r3, #1
10002576:	6123      	str	r3, [r4, #16]
10002578:	2300      	movs	r3, #0
1000257a:	9a04      	ldr	r2, [sp, #16]
1000257c:	7013      	strb	r3, [r2, #0]
1000257e:	9b07      	ldr	r3, [sp, #28]
10002580:	9805      	ldr	r0, [sp, #20]
10002582:	9300      	str	r3, [sp, #0]
10002584:	1c21      	adds	r1, r4, #0
10002586:	9b06      	ldr	r3, [sp, #24]
10002588:	aa09      	add	r2, sp, #36	; 0x24
1000258a:	f7ff fea7 	bl	100022dc <_printf_common>
1000258e:	1c43      	adds	r3, r0, #1
10002590:	d102      	bne.n	10002598 <_printf_i+0x1e0>
10002592:	2001      	movs	r0, #1
10002594:	4240      	negs	r0, r0
10002596:	e021      	b.n	100025dc <_printf_i+0x224>
10002598:	1c2a      	adds	r2, r5, #0
1000259a:	6923      	ldr	r3, [r4, #16]
1000259c:	9805      	ldr	r0, [sp, #20]
1000259e:	9906      	ldr	r1, [sp, #24]
100025a0:	9d07      	ldr	r5, [sp, #28]
100025a2:	47a8      	blx	r5
100025a4:	1c43      	adds	r3, r0, #1
100025a6:	d0f4      	beq.n	10002592 <_printf_i+0x1da>
100025a8:	6823      	ldr	r3, [r4, #0]
100025aa:	079b      	lsls	r3, r3, #30
100025ac:	d405      	bmi.n	100025ba <_printf_i+0x202>
100025ae:	9b09      	ldr	r3, [sp, #36]	; 0x24
100025b0:	68e0      	ldr	r0, [r4, #12]
100025b2:	4298      	cmp	r0, r3
100025b4:	da12      	bge.n	100025dc <_printf_i+0x224>
100025b6:	1c18      	adds	r0, r3, #0
100025b8:	e010      	b.n	100025dc <_printf_i+0x224>
100025ba:	2500      	movs	r5, #0
100025bc:	68e3      	ldr	r3, [r4, #12]
100025be:	9a09      	ldr	r2, [sp, #36]	; 0x24
100025c0:	1a9b      	subs	r3, r3, r2
100025c2:	429d      	cmp	r5, r3
100025c4:	daf3      	bge.n	100025ae <_printf_i+0x1f6>
100025c6:	1c22      	adds	r2, r4, #0
100025c8:	2301      	movs	r3, #1
100025ca:	9805      	ldr	r0, [sp, #20]
100025cc:	9906      	ldr	r1, [sp, #24]
100025ce:	3219      	adds	r2, #25
100025d0:	9e07      	ldr	r6, [sp, #28]
100025d2:	47b0      	blx	r6
100025d4:	1c43      	adds	r3, r0, #1
100025d6:	d0dc      	beq.n	10002592 <_printf_i+0x1da>
100025d8:	3501      	adds	r5, #1
100025da:	e7ef      	b.n	100025bc <_printf_i+0x204>
100025dc:	b00b      	add	sp, #44	; 0x2c
100025de:	bdf0      	pop	{r4, r5, r6, r7, pc}
100025e0:	100028e0 	.word	0x100028e0
100025e4:	100028f1 	.word	0x100028f1

100025e8 <memchr>:
100025e8:	b2c9      	uxtb	r1, r1
100025ea:	1882      	adds	r2, r0, r2
100025ec:	4290      	cmp	r0, r2
100025ee:	d004      	beq.n	100025fa <memchr+0x12>
100025f0:	7803      	ldrb	r3, [r0, #0]
100025f2:	428b      	cmp	r3, r1
100025f4:	d002      	beq.n	100025fc <memchr+0x14>
100025f6:	3001      	adds	r0, #1
100025f8:	e7f8      	b.n	100025ec <memchr+0x4>
100025fa:	2000      	movs	r0, #0
100025fc:	4770      	bx	lr

100025fe <memmove>:
100025fe:	b510      	push	{r4, lr}
10002600:	4281      	cmp	r1, r0
10002602:	d208      	bcs.n	10002616 <memmove+0x18>
10002604:	188b      	adds	r3, r1, r2
10002606:	4298      	cmp	r0, r3
10002608:	d205      	bcs.n	10002616 <memmove+0x18>
1000260a:	1a9b      	subs	r3, r3, r2
1000260c:	3a01      	subs	r2, #1
1000260e:	d309      	bcc.n	10002624 <memmove+0x26>
10002610:	5c99      	ldrb	r1, [r3, r2]
10002612:	5481      	strb	r1, [r0, r2]
10002614:	e7fa      	b.n	1000260c <memmove+0xe>
10002616:	2300      	movs	r3, #0
10002618:	4293      	cmp	r3, r2
1000261a:	d003      	beq.n	10002624 <memmove+0x26>
1000261c:	5ccc      	ldrb	r4, [r1, r3]
1000261e:	54c4      	strb	r4, [r0, r3]
10002620:	3301      	adds	r3, #1
10002622:	e7f9      	b.n	10002618 <memmove+0x1a>
10002624:	bd10      	pop	{r4, pc}
	...

10002628 <_free_r>:
10002628:	b530      	push	{r4, r5, lr}
1000262a:	2900      	cmp	r1, #0
1000262c:	d03e      	beq.n	100026ac <_free_r+0x84>
1000262e:	3904      	subs	r1, #4
10002630:	680b      	ldr	r3, [r1, #0]
10002632:	2b00      	cmp	r3, #0
10002634:	da00      	bge.n	10002638 <_free_r+0x10>
10002636:	18c9      	adds	r1, r1, r3
10002638:	4a1d      	ldr	r2, [pc, #116]	; (100026b0 <_free_r+0x88>)
1000263a:	6813      	ldr	r3, [r2, #0]
1000263c:	1c14      	adds	r4, r2, #0
1000263e:	2b00      	cmp	r3, #0
10002640:	d102      	bne.n	10002648 <_free_r+0x20>
10002642:	604b      	str	r3, [r1, #4]
10002644:	6011      	str	r1, [r2, #0]
10002646:	e031      	b.n	100026ac <_free_r+0x84>
10002648:	4299      	cmp	r1, r3
1000264a:	d20d      	bcs.n	10002668 <_free_r+0x40>
1000264c:	6808      	ldr	r0, [r1, #0]
1000264e:	180a      	adds	r2, r1, r0
10002650:	429a      	cmp	r2, r3
10002652:	d103      	bne.n	1000265c <_free_r+0x34>
10002654:	6813      	ldr	r3, [r2, #0]
10002656:	18c3      	adds	r3, r0, r3
10002658:	600b      	str	r3, [r1, #0]
1000265a:	6853      	ldr	r3, [r2, #4]
1000265c:	604b      	str	r3, [r1, #4]
1000265e:	6021      	str	r1, [r4, #0]
10002660:	e024      	b.n	100026ac <_free_r+0x84>
10002662:	428a      	cmp	r2, r1
10002664:	d803      	bhi.n	1000266e <_free_r+0x46>
10002666:	1c13      	adds	r3, r2, #0
10002668:	685a      	ldr	r2, [r3, #4]
1000266a:	2a00      	cmp	r2, #0
1000266c:	d1f9      	bne.n	10002662 <_free_r+0x3a>
1000266e:	681d      	ldr	r5, [r3, #0]
10002670:	195c      	adds	r4, r3, r5
10002672:	428c      	cmp	r4, r1
10002674:	d10b      	bne.n	1000268e <_free_r+0x66>
10002676:	6809      	ldr	r1, [r1, #0]
10002678:	1869      	adds	r1, r5, r1
1000267a:	1858      	adds	r0, r3, r1
1000267c:	6019      	str	r1, [r3, #0]
1000267e:	4290      	cmp	r0, r2
10002680:	d114      	bne.n	100026ac <_free_r+0x84>
10002682:	6810      	ldr	r0, [r2, #0]
10002684:	6852      	ldr	r2, [r2, #4]
10002686:	1809      	adds	r1, r1, r0
10002688:	6019      	str	r1, [r3, #0]
1000268a:	605a      	str	r2, [r3, #4]
1000268c:	e00e      	b.n	100026ac <_free_r+0x84>
1000268e:	428c      	cmp	r4, r1
10002690:	d902      	bls.n	10002698 <_free_r+0x70>
10002692:	230c      	movs	r3, #12
10002694:	6003      	str	r3, [r0, #0]
10002696:	e009      	b.n	100026ac <_free_r+0x84>
10002698:	6808      	ldr	r0, [r1, #0]
1000269a:	180c      	adds	r4, r1, r0
1000269c:	4294      	cmp	r4, r2
1000269e:	d103      	bne.n	100026a8 <_free_r+0x80>
100026a0:	6814      	ldr	r4, [r2, #0]
100026a2:	6852      	ldr	r2, [r2, #4]
100026a4:	1900      	adds	r0, r0, r4
100026a6:	6008      	str	r0, [r1, #0]
100026a8:	604a      	str	r2, [r1, #4]
100026aa:	6059      	str	r1, [r3, #4]
100026ac:	bd30      	pop	{r4, r5, pc}
100026ae:	46c0      	nop			; (mov r8, r8)
100026b0:	20000624 	.word	0x20000624

100026b4 <_malloc_r>:
100026b4:	2303      	movs	r3, #3
100026b6:	b570      	push	{r4, r5, r6, lr}
100026b8:	1ccc      	adds	r4, r1, #3
100026ba:	439c      	bics	r4, r3
100026bc:	3408      	adds	r4, #8
100026be:	1c05      	adds	r5, r0, #0
100026c0:	2c0c      	cmp	r4, #12
100026c2:	d201      	bcs.n	100026c8 <_malloc_r+0x14>
100026c4:	240c      	movs	r4, #12
100026c6:	e005      	b.n	100026d4 <_malloc_r+0x20>
100026c8:	2c00      	cmp	r4, #0
100026ca:	da03      	bge.n	100026d4 <_malloc_r+0x20>
100026cc:	230c      	movs	r3, #12
100026ce:	2000      	movs	r0, #0
100026d0:	602b      	str	r3, [r5, #0]
100026d2:	e042      	b.n	1000275a <_malloc_r+0xa6>
100026d4:	428c      	cmp	r4, r1
100026d6:	d3f9      	bcc.n	100026cc <_malloc_r+0x18>
100026d8:	4a20      	ldr	r2, [pc, #128]	; (1000275c <_malloc_r+0xa8>)
100026da:	6813      	ldr	r3, [r2, #0]
100026dc:	1c10      	adds	r0, r2, #0
100026de:	1c19      	adds	r1, r3, #0
100026e0:	2900      	cmp	r1, #0
100026e2:	d013      	beq.n	1000270c <_malloc_r+0x58>
100026e4:	680a      	ldr	r2, [r1, #0]
100026e6:	1b12      	subs	r2, r2, r4
100026e8:	d40d      	bmi.n	10002706 <_malloc_r+0x52>
100026ea:	2a0b      	cmp	r2, #11
100026ec:	d902      	bls.n	100026f4 <_malloc_r+0x40>
100026ee:	600a      	str	r2, [r1, #0]
100026f0:	188b      	adds	r3, r1, r2
100026f2:	e01f      	b.n	10002734 <_malloc_r+0x80>
100026f4:	428b      	cmp	r3, r1
100026f6:	d102      	bne.n	100026fe <_malloc_r+0x4a>
100026f8:	685a      	ldr	r2, [r3, #4]
100026fa:	6002      	str	r2, [r0, #0]
100026fc:	e01b      	b.n	10002736 <_malloc_r+0x82>
100026fe:	684a      	ldr	r2, [r1, #4]
10002700:	605a      	str	r2, [r3, #4]
10002702:	1c0b      	adds	r3, r1, #0
10002704:	e017      	b.n	10002736 <_malloc_r+0x82>
10002706:	1c0b      	adds	r3, r1, #0
10002708:	6849      	ldr	r1, [r1, #4]
1000270a:	e7e9      	b.n	100026e0 <_malloc_r+0x2c>
1000270c:	4e14      	ldr	r6, [pc, #80]	; (10002760 <_malloc_r+0xac>)
1000270e:	6833      	ldr	r3, [r6, #0]
10002710:	2b00      	cmp	r3, #0
10002712:	d103      	bne.n	1000271c <_malloc_r+0x68>
10002714:	1c28      	adds	r0, r5, #0
10002716:	f000 f84b 	bl	100027b0 <_sbrk_r>
1000271a:	6030      	str	r0, [r6, #0]
1000271c:	1c28      	adds	r0, r5, #0
1000271e:	1c21      	adds	r1, r4, #0
10002720:	f000 f846 	bl	100027b0 <_sbrk_r>
10002724:	1c03      	adds	r3, r0, #0
10002726:	1c42      	adds	r2, r0, #1
10002728:	d0d0      	beq.n	100026cc <_malloc_r+0x18>
1000272a:	2203      	movs	r2, #3
1000272c:	1cc6      	adds	r6, r0, #3
1000272e:	4396      	bics	r6, r2
10002730:	4286      	cmp	r6, r0
10002732:	d10a      	bne.n	1000274a <_malloc_r+0x96>
10002734:	601c      	str	r4, [r3, #0]
10002736:	1c18      	adds	r0, r3, #0
10002738:	2107      	movs	r1, #7
1000273a:	300b      	adds	r0, #11
1000273c:	1d1a      	adds	r2, r3, #4
1000273e:	4388      	bics	r0, r1
10002740:	1a82      	subs	r2, r0, r2
10002742:	d00a      	beq.n	1000275a <_malloc_r+0xa6>
10002744:	4251      	negs	r1, r2
10002746:	5099      	str	r1, [r3, r2]
10002748:	e007      	b.n	1000275a <_malloc_r+0xa6>
1000274a:	1a31      	subs	r1, r6, r0
1000274c:	1c28      	adds	r0, r5, #0
1000274e:	f000 f82f 	bl	100027b0 <_sbrk_r>
10002752:	1c43      	adds	r3, r0, #1
10002754:	d0ba      	beq.n	100026cc <_malloc_r+0x18>
10002756:	1c33      	adds	r3, r6, #0
10002758:	e7ec      	b.n	10002734 <_malloc_r+0x80>
1000275a:	bd70      	pop	{r4, r5, r6, pc}
1000275c:	20000624 	.word	0x20000624
10002760:	20000620 	.word	0x20000620

10002764 <_realloc_r>:
10002764:	b5f8      	push	{r3, r4, r5, r6, r7, lr}
10002766:	1c06      	adds	r6, r0, #0
10002768:	1c0c      	adds	r4, r1, #0
1000276a:	1c15      	adds	r5, r2, #0
1000276c:	2900      	cmp	r1, #0
1000276e:	d104      	bne.n	1000277a <_realloc_r+0x16>
10002770:	1c11      	adds	r1, r2, #0
10002772:	f7ff ff9f 	bl	100026b4 <_malloc_r>
10002776:	1c04      	adds	r4, r0, #0
10002778:	e018      	b.n	100027ac <_realloc_r+0x48>
1000277a:	2a00      	cmp	r2, #0
1000277c:	d103      	bne.n	10002786 <_realloc_r+0x22>
1000277e:	f7ff ff53 	bl	10002628 <_free_r>
10002782:	1c2c      	adds	r4, r5, #0
10002784:	e012      	b.n	100027ac <_realloc_r+0x48>
10002786:	f000 f825 	bl	100027d4 <_malloc_usable_size_r>
1000278a:	42a8      	cmp	r0, r5
1000278c:	d20e      	bcs.n	100027ac <_realloc_r+0x48>
1000278e:	1c30      	adds	r0, r6, #0
10002790:	1c29      	adds	r1, r5, #0
10002792:	f7ff ff8f 	bl	100026b4 <_malloc_r>
10002796:	1e07      	subs	r7, r0, #0
10002798:	d007      	beq.n	100027aa <_realloc_r+0x46>
1000279a:	1c21      	adds	r1, r4, #0
1000279c:	1c2a      	adds	r2, r5, #0
1000279e:	f7ff fc13 	bl	10001fc8 <memcpy>
100027a2:	1c30      	adds	r0, r6, #0
100027a4:	1c21      	adds	r1, r4, #0
100027a6:	f7ff ff3f 	bl	10002628 <_free_r>
100027aa:	1c3c      	adds	r4, r7, #0
100027ac:	1c20      	adds	r0, r4, #0
100027ae:	bdf8      	pop	{r3, r4, r5, r6, r7, pc}

100027b0 <_sbrk_r>:
100027b0:	b538      	push	{r3, r4, r5, lr}
100027b2:	2300      	movs	r3, #0
100027b4:	4c06      	ldr	r4, [pc, #24]	; (100027d0 <_sbrk_r+0x20>)
100027b6:	1c05      	adds	r5, r0, #0
100027b8:	1c08      	adds	r0, r1, #0
100027ba:	6023      	str	r3, [r4, #0]
100027bc:	f7ff f834 	bl	10001828 <_sbrk>
100027c0:	1c43      	adds	r3, r0, #1
100027c2:	d103      	bne.n	100027cc <_sbrk_r+0x1c>
100027c4:	6823      	ldr	r3, [r4, #0]
100027c6:	2b00      	cmp	r3, #0
100027c8:	d000      	beq.n	100027cc <_sbrk_r+0x1c>
100027ca:	602b      	str	r3, [r5, #0]
100027cc:	bd38      	pop	{r3, r4, r5, pc}
100027ce:	46c0      	nop			; (mov r8, r8)
100027d0:	20000748 	.word	0x20000748

100027d4 <_malloc_usable_size_r>:
100027d4:	1f0b      	subs	r3, r1, #4
100027d6:	681a      	ldr	r2, [r3, #0]
100027d8:	1f10      	subs	r0, r2, #4
100027da:	2a00      	cmp	r2, #0
100027dc:	da04      	bge.n	100027e8 <_malloc_usable_size_r+0x14>
100027de:	1889      	adds	r1, r1, r2
100027e0:	3904      	subs	r1, #4
100027e2:	680b      	ldr	r3, [r1, #0]
100027e4:	18d0      	adds	r0, r2, r3
100027e6:	3804      	subs	r0, #4
100027e8:	4770      	bx	lr
	...

100027ec <UART_0_config>:
100027ec:	2830 1000 18f5 1000 0000 0000 0000 0000     0(..............
	...
10002808:	281c 1000 0200 0402 0004 0000               .(..........

10002814 <UART_0_rx_pin_config>:
10002814:	0000 0000 0001 0000                         ........

1000281c <UART_0_tx_pin>:
1000281c:	0100 4004 0002 0000 2828 1000               ...@....((..

10002828 <UART_0_tx_pin_config>:
10002828:	009c 0000 0001 0000                         ........

10002830 <UART_0_channel_config>:
10002830:	c200 0001 0800 0108 0010 0000               ............

1000283c <SPI_SLAVE_0_miso_pin>:
1000283c:	0100 4004 2890 1000 0500 0000               ...@.(......

10002848 <SPI_SLAVE_0_channel_config>:
10002848:	0000 0000 0100 0000 0000 0000               ............

10002854 <SPI_SLAVE_0_mosi_pin_config>:
10002854:	0000 0000 0001 0000                         ........

1000285c <SPI_SLAVE_0_conf>:
1000285c:	2848 1000 283c 1000 2884 1000 1d15 1000     H(..<(...(......
	...
10002880:	0100 0002                                   ....

10002884 <SPI_SLAVE_0_mosi_pin>:
10002884:	0100 4004 2854 1000 0000 0000               ...@T(......

10002890 <SPI_SLAVE_0_mosi1_pin_config>:
10002890:	0088 0000 0001 0000                         ........

10002898 <SPI_SLAVE_0_sclk_pin_config>:
10002898:	0000 0000 0001 0000                         ........

100028a0 <SPI_SLAVE_0_slavesel_pin_config>:
100028a0:	0000 0000 0001 0000 0000 0001 0000 0300     ................
100028b0:	0000 0001 0000 0000 6425 000a 6544 6976     ........%d..Devi
100028c0:	6563 7320 6174 7472 6465 0a21 4300 2300     ce started!..C.#
100028d0:	302d 202b 6800 4c6c 6500 6766 4645 0047     -0+ .hlL.efgEFG.
100028e0:	3130 3332 3534 3736 3938 4241 4443 4645     0123456789ABCDEF
100028f0:	3000 3231 3433 3635 3837 6139 6362 6564     .0123456789abcde
10002900:	0066 0000                                   f...

Disassembly of section .VENEER_Code:

2000000c <HardFault_Veener>:
2000000c:	482c      	ldr	r0, [pc, #176]	; (200000c0 <IRQ31_Veener+0x4>)
2000000e:	4700      	bx	r0
	...

2000002c <SVC_Veener>:
2000002c:	4825      	ldr	r0, [pc, #148]	; (200000c4 <IRQ31_Veener+0x8>)
2000002e:	4700      	bx	r0
	...

20000038 <PendSV_Veener>:
20000038:	4823      	ldr	r0, [pc, #140]	; (200000c8 <IRQ31_Veener+0xc>)
2000003a:	4700      	bx	r0

2000003c <SysTick_Veener>:
2000003c:	4823      	ldr	r0, [pc, #140]	; (200000cc <IRQ31_Veener+0x10>)
2000003e:	4700      	bx	r0

20000040 <IRQ0_Veener>:
20000040:	4823      	ldr	r0, [pc, #140]	; (200000d0 <IRQ31_Veener+0x14>)
20000042:	4700      	bx	r0

20000044 <IRQ1_Veener>:
20000044:	4823      	ldr	r0, [pc, #140]	; (200000d4 <IRQ31_Veener+0x18>)
20000046:	4700      	bx	r0

20000048 <IRQ2_Veener>:
20000048:	4823      	ldr	r0, [pc, #140]	; (200000d8 <IRQ31_Veener+0x1c>)
2000004a:	4700      	bx	r0

2000004c <IRQ3_Veener>:
2000004c:	4823      	ldr	r0, [pc, #140]	; (200000dc <IRQ31_Veener+0x20>)
2000004e:	4700      	bx	r0

20000050 <IRQ4_Veener>:
20000050:	4823      	ldr	r0, [pc, #140]	; (200000e0 <IRQ31_Veener+0x24>)
20000052:	4700      	bx	r0

20000054 <IRQ5_Veener>:
20000054:	4823      	ldr	r0, [pc, #140]	; (200000e4 <IRQ31_Veener+0x28>)
20000056:	4700      	bx	r0

20000058 <IRQ6_Veener>:
20000058:	4823      	ldr	r0, [pc, #140]	; (200000e8 <IRQ31_Veener+0x2c>)
2000005a:	4700      	bx	r0

2000005c <IRQ7_Veener>:
2000005c:	4823      	ldr	r0, [pc, #140]	; (200000ec <IRQ31_Veener+0x30>)
2000005e:	4700      	bx	r0

20000060 <IRQ8_Veener>:
20000060:	4823      	ldr	r0, [pc, #140]	; (200000f0 <IRQ31_Veener+0x34>)
20000062:	4700      	bx	r0

20000064 <IRQ9_Veener>:
20000064:	4823      	ldr	r0, [pc, #140]	; (200000f4 <IRQ31_Veener+0x38>)
20000066:	4700      	bx	r0

20000068 <IRQ10_Veener>:
20000068:	4823      	ldr	r0, [pc, #140]	; (200000f8 <IRQ31_Veener+0x3c>)
2000006a:	4700      	bx	r0

2000006c <IRQ11_Veener>:
2000006c:	4823      	ldr	r0, [pc, #140]	; (200000fc <IRQ31_Veener+0x40>)
2000006e:	4700      	bx	r0

20000070 <IRQ12_Veener>:
20000070:	4823      	ldr	r0, [pc, #140]	; (20000100 <IRQ31_Veener+0x44>)
20000072:	4700      	bx	r0

20000074 <IRQ13_Veener>:
20000074:	4823      	ldr	r0, [pc, #140]	; (20000104 <IRQ31_Veener+0x48>)
20000076:	4700      	bx	r0

20000078 <IRQ14_Veener>:
20000078:	4823      	ldr	r0, [pc, #140]	; (20000108 <IRQ31_Veener+0x4c>)
2000007a:	4700      	bx	r0

2000007c <IRQ15_Veener>:
2000007c:	4823      	ldr	r0, [pc, #140]	; (2000010c <IRQ31_Veener+0x50>)
2000007e:	4700      	bx	r0

20000080 <IRQ16_Veener>:
20000080:	4823      	ldr	r0, [pc, #140]	; (20000110 <IRQ31_Veener+0x54>)
20000082:	4700      	bx	r0

20000084 <IRQ17_Veener>:
20000084:	4823      	ldr	r0, [pc, #140]	; (20000114 <IRQ31_Veener+0x58>)
20000086:	4700      	bx	r0

20000088 <IRQ18_Veener>:
20000088:	4823      	ldr	r0, [pc, #140]	; (20000118 <IRQ31_Veener+0x5c>)
2000008a:	4700      	bx	r0

2000008c <IRQ19_Veener>:
2000008c:	4823      	ldr	r0, [pc, #140]	; (2000011c <IRQ31_Veener+0x60>)
2000008e:	4700      	bx	r0

20000090 <IRQ20_Veener>:
20000090:	4823      	ldr	r0, [pc, #140]	; (20000120 <IRQ31_Veener+0x64>)
20000092:	4700      	bx	r0

20000094 <IRQ21_Veener>:
20000094:	4823      	ldr	r0, [pc, #140]	; (20000124 <IRQ31_Veener+0x68>)
20000096:	4700      	bx	r0

20000098 <IRQ22_Veener>:
20000098:	4823      	ldr	r0, [pc, #140]	; (20000128 <IRQ31_Veener+0x6c>)
2000009a:	4700      	bx	r0

2000009c <IRQ23_Veener>:
2000009c:	4823      	ldr	r0, [pc, #140]	; (2000012c <IRQ31_Veener+0x70>)
2000009e:	4700      	bx	r0

200000a0 <IRQ24_Veener>:
200000a0:	4823      	ldr	r0, [pc, #140]	; (20000130 <IRQ31_Veener+0x74>)
200000a2:	4700      	bx	r0

200000a4 <IRQ25_Veener>:
200000a4:	4823      	ldr	r0, [pc, #140]	; (20000134 <IRQ31_Veener+0x78>)
200000a6:	4700      	bx	r0

200000a8 <IRQ26_Veener>:
200000a8:	4823      	ldr	r0, [pc, #140]	; (20000138 <IRQ31_Veener+0x7c>)
200000aa:	4700      	bx	r0

200000ac <IRQ27_Veener>:
200000ac:	4823      	ldr	r0, [pc, #140]	; (2000013c <IRQ31_Veener+0x80>)
200000ae:	4700      	bx	r0

200000b0 <IRQ28_Veener>:
200000b0:	4823      	ldr	r0, [pc, #140]	; (20000140 <IRQ31_Veener+0x84>)
200000b2:	4700      	bx	r0

200000b4 <IRQ29_Veener>:
200000b4:	4823      	ldr	r0, [pc, #140]	; (20000144 <IRQ31_Veener+0x88>)
200000b6:	4700      	bx	r0

200000b8 <IRQ30_Veener>:
200000b8:	4823      	ldr	r0, [pc, #140]	; (20000148 <IRQ31_Veener+0x8c>)
200000ba:	4700      	bx	r0

200000bc <IRQ31_Veener>:
200000bc:	4823      	ldr	r0, [pc, #140]	; (2000014c <IRQ31_Veener+0x90>)
200000be:	4700      	bx	r0
200000c0:	1000109d 	.word	0x1000109d
200000c4:	1000109d 	.word	0x1000109d
200000c8:	1000109d 	.word	0x1000109d
200000cc:	10001a4d 	.word	0x10001a4d
200000d0:	1000109d 	.word	0x1000109d
200000d4:	1000109d 	.word	0x1000109d
200000d8:	1000109d 	.word	0x1000109d
200000dc:	1000109d 	.word	0x1000109d
200000e0:	1000109d 	.word	0x1000109d
200000e4:	1000109d 	.word	0x1000109d
200000e8:	1000109d 	.word	0x1000109d
200000ec:	1000109d 	.word	0x1000109d
200000f0:	1000109d 	.word	0x1000109d
200000f4:	10001e7d 	.word	0x10001e7d
200000f8:	10001e6d 	.word	0x10001e6d
200000fc:	1000109d 	.word	0x1000109d
20000100:	1000109d 	.word	0x1000109d
20000104:	1000109d 	.word	0x1000109d
20000108:	1000109d 	.word	0x1000109d
2000010c:	1000109d 	.word	0x1000109d
20000110:	1000109d 	.word	0x1000109d
20000114:	1000109d 	.word	0x1000109d
20000118:	1000109d 	.word	0x1000109d
2000011c:	1000109d 	.word	0x1000109d
20000120:	1000109d 	.word	0x1000109d
20000124:	1000109d 	.word	0x1000109d
20000128:	1000109d 	.word	0x1000109d
2000012c:	1000109d 	.word	0x1000109d
20000130:	1000109d 	.word	0x1000109d
20000134:	1000109d 	.word	0x1000109d
20000138:	1000109d 	.word	0x1000109d
2000013c:	1000109d 	.word	0x1000109d
20000140:	1000109d 	.word	0x1000109d
20000144:	1000109d 	.word	0x1000109d
20000148:	1000109d 	.word	0x1000109d
2000014c:	1000109d 	.word	0x1000109d
