   1              	 .cpu cortex-m0
   2              	 .fpu softvfp
   3              	 .eabi_attribute 20,1
   4              	 .eabi_attribute 21,1
   5              	 .eabi_attribute 23,3
   6              	 .eabi_attribute 24,1
   7              	 .eabi_attribute 25,1
   8              	 .eabi_attribute 26,1
   9              	 .eabi_attribute 30,4
  10              	 .eabi_attribute 34,0
  11              	 .eabi_attribute 18,4
  12              	 .code 16
  13              	 .file "xmc_vadc.c"
  14              	 .section .text.XMC_VADC_GLOBAL_EnableModule,"ax",%progbits
  15              	 .align 1
  16              	 .global XMC_VADC_GLOBAL_EnableModule
  17              	 .code 16
  18              	 .thumb_func
  20              	XMC_VADC_GLOBAL_EnableModule:
  21 0000 FF22     	 mov r2,#255
  22 0002 08B5     	 push {r3,lr}
  23 0004 024B     	 ldr r3,.L2
  24 0006 0120     	 mov r0,#1
  25 0008 1A60     	 str r2,[r3]
  26 000a FFF7FEFF 	 bl XMC_SCU_CLOCK_UngatePeripheralClock
  27              	 
  28 000e 08BD     	 pop {r3,pc}
  29              	.L3:
  30              	 .align 2
  31              	.L2:
  32 0010 00050140 	 .word 1073808640
  34              	 .section .text.XMC_VADC_GLOBAL_DisableModule,"ax",%progbits
  35              	 .align 1
  36              	 .global XMC_VADC_GLOBAL_DisableModule
  37              	 .code 16
  38              	 .thumb_func
  40              	XMC_VADC_GLOBAL_DisableModule:
  41 0000 08B5     	 push {r3,lr}
  42 0002 0120     	 mov r0,#1
  43 0004 FFF7FEFF 	 bl XMC_SCU_CLOCK_GatePeripheralClock
  44              	 
  45 0008 08BD     	 pop {r3,pc}
  47              	 .section .text.XMC_VADC_GLOBAL_Init,"ax",%progbits
  48              	 .align 1
  49              	 .global XMC_VADC_GLOBAL_Init
  50              	 .code 16
  51              	 .thumb_func
  53              	XMC_VADC_GLOBAL_Init:
  54 0000 38B5     	 push {r3,r4,r5,lr}
  55 0002 041C     	 mov r4,r0
  56 0004 0D1C     	 mov r5,r1
  57 0006 0020     	 mov r0,#0
  58 0008 FFF7FEFF 	 bl XMC_SCU_CLOCK_SetAdcClockSrc
  59 000c FFF7FEFF 	 bl XMC_VADC_GLOBAL_EnableModule
  60 0010 231C     	 mov r3,r4
  61 0012 6A69     	 ldr r2,[r5,#20]
  62              	 
  63 0014 04C3     	 stmia r3!,{r2}
  64 0016 8022     	 mov r2,#128
  65 0018 6968     	 ldr r1,[r5,#4]
  66 001a 1202     	 lsl r2,r2,#8
  67 001c 0A43     	 orr r2,r1
  68 001e DA67     	 str r2,[r3,#124]
  69 0020 231C     	 mov r3,r4
  70 0022 AA68     	 ldr r2,[r5,#8]
  71 0024 A033     	 add r3,r3,#160
  72 0026 1A60     	 str r2,[r3]
  73 0028 EA68     	 ldr r2,[r5,#12]
  74 002a 5A60     	 str r2,[r3,#4]
  75 002c A023     	 mov r3,#160
  76 002e 2A69     	 ldr r2,[r5,#16]
  77 0030 9B00     	 lsl r3,r3,#2
  78 0032 E250     	 str r2,[r4,r3]
  79 0034 2B68     	 ldr r3,[r5]
  80 0036 B834     	 add r4,r4,#184
  81 0038 2360     	 str r3,[r4]
  82 003a 38BD     	 pop {r3,r4,r5,pc}
  84              	 .section .text.XMC_VADC_GLOBAL_InputClassInit,"ax",%progbits
  85              	 .align 1
  86              	 .global XMC_VADC_GLOBAL_InputClassInit
  87              	 .code 16
  88              	 .thumb_func
  90              	XMC_VADC_GLOBAL_InputClassInit:
  91 0000 2833     	 add r3,r3,#40
  92 0002 002A     	 cmp r2,#0
  93 0004 01D1     	 bne .L7
  94 0006 034A     	 ldr r2,.L11
  95 0008 00E0     	 b .L9
  96              	.L7:
  97 000a 034A     	 ldr r2,.L11+4
  98              	.L9:
  99 000c 1140     	 and r1,r2
 100 000e 9B00     	 lsl r3,r3,#2
 101 0010 1950     	 str r1,[r3,r0]
 102              	 
 103 0012 7047     	 bx lr
 104              	.L12:
 105              	 .align 2
 106              	.L11:
 107 0014 1F070000 	 .word 1823
 108 0018 00001F07 	 .word 119472128
 110              	 .section .text.XMC_VADC_GLOBAL_StartupCalibration,"ax",%progbits
 111              	 .align 1
 112              	 .global XMC_VADC_GLOBAL_StartupCalibration
 113              	 .code 16
 114              	 .thumb_func
 116              	XMC_VADC_GLOBAL_StartupCalibration:
 117 0000 8022     	 mov r2,#128
 118 0002 0430     	 add r0,r0,#4
 119 0004 C36F     	 ldr r3,[r0,#124]
 120 0006 1206     	 lsl r2,r2,#24
 121 0008 1343     	 orr r3,r2
 122 000a C022     	 mov r2,#192
 123 000c C367     	 str r3,[r0,#124]
 124 000e 104B     	 ldr r3,.L29
 125 0010 9202     	 lsl r2,r2,#10
 126 0012 D96F     	 ldr r1,[r3,#124]
 127 0014 1142     	 tst r1,r2
 128 0016 09D0     	 beq .L14
 129              	.L17:
 130 0018 DA6F     	 ldr r2,[r3,#124]
 131 001a 9200     	 lsl r2,r2,#2
 132 001c 04D5     	 bpl .L15
 133              	.L16:
 134 001e DA6F     	 ldr r2,[r3,#124]
 135 0020 D200     	 lsl r2,r2,#3
 136 0022 03D5     	 bpl .L14
 137              	
 138 0024 C046     	 nop
 139              	
 140              	 .code 16
 141 0026 FAE7     	 b .L16
 142              	.L15:
 143              	
 144 0028 C046     	 nop
 145              	
 146              	 .code 16
 147 002a F5E7     	 b .L17
 148              	.L14:
 149 002c C022     	 mov r2,#192
 150 002e 094B     	 ldr r3,.L29+4
 151 0030 9202     	 lsl r2,r2,#10
 152 0032 D96F     	 ldr r1,[r3,#124]
 153 0034 1142     	 tst r1,r2
 154 0036 09D0     	 beq .L13
 155              	.L18:
 156 0038 DA6F     	 ldr r2,[r3,#124]
 157 003a 9200     	 lsl r2,r2,#2
 158 003c 01D4     	 bmi .L21
 159              	
 160 003e C046     	 nop
 161              	
 162              	 .code 16
 163 0040 FAE7     	 b .L18
 164              	.L21:
 165 0042 DA6F     	 ldr r2,[r3,#124]
 166 0044 D200     	 lsl r2,r2,#3
 167 0046 01D5     	 bpl .L13
 168              	
 169 0048 C046     	 nop
 170              	
 171              	 .code 16
 172 004a FAE7     	 b .L21
 173              	.L13:
 174              	 
 175 004c 7047     	 bx lr
 176              	.L30:
 177 004e C046     	 .align 2
 178              	.L29:
 179 0050 04040348 	 .word 1208157188
 180 0054 04080348 	 .word 1208158212
 182              	 .section .text.XMC_VADC_GLOBAL_SetBoundaries,"ax",%progbits
 183              	 .align 1
 184              	 .global XMC_VADC_GLOBAL_SetBoundaries
 185              	 .code 16
 186              	 .thumb_func
 188              	XMC_VADC_GLOBAL_SetBoundaries:
 189 0000 1204     	 lsl r2,r2,#16
 190 0002 1143     	 orr r1,r2
 191 0004 B830     	 add r0,r0,#184
 192 0006 0160     	 str r1,[r0]
 193              	 
 194 0008 7047     	 bx lr
 196              	 .section .text.XMC_VADC_GLOBAL_SetIndividualBoundary,"ax",%progbits
 197              	 .align 1
 198              	 .global XMC_VADC_GLOBAL_SetIndividualBoundary
 199              	 .code 16
 200              	 .thumb_func
 202              	XMC_VADC_GLOBAL_SetIndividualBoundary:
 203 0000 B830     	 add r0,r0,#184
 204 0002 0368     	 ldr r3,[r0]
 205 0004 0229     	 cmp r1,#2
 206 0006 02D1     	 bne .L33
 207 0008 1B0B     	 lsr r3,r3,#12
 208 000a 1B03     	 lsl r3,r3,#12
 209 000c 04E0     	 b .L35
 210              	.L33:
 211 000e 0329     	 cmp r1,#3
 212 0010 03D1     	 bne .L34
 213 0012 0349     	 ldr r1,.L36
 214 0014 1204     	 lsl r2,r2,#16
 215 0016 0B40     	 and r3,r1
 216              	.L35:
 217 0018 1343     	 orr r3,r2
 218              	.L34:
 219 001a 0360     	 str r3,[r0]
 220              	 
 221 001c 7047     	 bx lr
 222              	.L37:
 223 001e C046     	 .align 2
 224              	.L36:
 225 0020 FFFF00F0 	 .word -268369921
 227              	 .section .text.XMC_VADC_GLOBAL_SetCompareValue,"ax",%progbits
 228              	 .align 1
 229              	 .global XMC_VADC_GLOBAL_SetCompareValue
 230              	 .code 16
 231              	 .thumb_func
 233              	XMC_VADC_GLOBAL_SetCompareValue:
 234 0000 C022     	 mov r2,#192
 235 0002 9200     	 lsl r2,r2,#2
 236 0004 8358     	 ldr r3,[r0,r2]
 237 0006 8900     	 lsl r1,r1,#2
 238 0008 1B0C     	 lsr r3,r3,#16
 239 000a 1B04     	 lsl r3,r3,#16
 240 000c 8350     	 str r3,[r0,r2]
 241 000e 8358     	 ldr r3,[r0,r2]
 242              	 
 243 0010 1943     	 orr r1,r3
 244 0012 8150     	 str r1,[r0,r2]
 245 0014 7047     	 bx lr
 247              	 .section .text.XMC_VADC_GLOBAL_GetCompareResult,"ax",%progbits
 248              	 .align 1
 249              	 .global XMC_VADC_GLOBAL_GetCompareResult
 250              	 .code 16
 251              	 .thumb_func
 253              	XMC_VADC_GLOBAL_GetCompareResult:
 254 0000 C023     	 mov r3,#192
 255 0002 9B00     	 lsl r3,r3,#2
 256 0004 C358     	 ldr r3,[r0,r3]
 257 0006 0220     	 mov r0,#2
 258 0008 002B     	 cmp r3,#0
 259 000a 01DA     	 bge .L40
 260 000c 5B00     	 lsl r3,r3,#1
 261 000e D80F     	 lsr r0,r3,#31
 262              	.L40:
 263              	 
 264 0010 7047     	 bx lr
 266              	 .section .text.XMC_VADC_GLOBAL_BindGroupToEMux,"ax",%progbits
 267              	 .align 1
 268              	 .global XMC_VADC_GLOBAL_BindGroupToEMux
 269              	 .code 16
 270              	 .thumb_func
 272              	XMC_VADC_GLOBAL_BindGroupToEMux:
 273 0000 30B5     	 push {r4,r5,lr}
 274 0002 0F25     	 mov r5,#15
 275 0004 0029     	 cmp r1,#0
 276 0006 01D0     	 beq .L43
 277 0008 0421     	 mov r1,#4
 278 000a F025     	 mov r5,#240
 279              	.L43:
 280 000c 8A40     	 lsl r2,r2,r1
 281 000e FC23     	 mov r3,#252
 282 0010 111C     	 mov r1,r2
 283 0012 9B00     	 lsl r3,r3,#2
 284 0014 C458     	 ldr r4,[r0,r3]
 285              	 
 286 0016 AC43     	 bic r4,r5
 287 0018 C450     	 str r4,[r0,r3]
 288 001a C458     	 ldr r4,[r0,r3]
 289 001c 2143     	 orr r1,r4
 290 001e C150     	 str r1,[r0,r3]
 291 0020 30BD     	 pop {r4,r5,pc}
 293              	 .section .text.XMC_VADC_GLOBAL_SetResultEventInterruptNode,"ax",%progbits
 294              	 .align 1
 295              	 .global XMC_VADC_GLOBAL_SetResultEventInterruptNode
 296              	 .code 16
 297              	 .thumb_func
 299              	XMC_VADC_GLOBAL_SetResultEventInterruptNode:
 300 0000 0329     	 cmp r1,#3
 301 0002 00D9     	 bls .L47
 302 0004 0439     	 sub r1,r1,#4
 303              	.L47:
 304 0006 FC30     	 add r0,r0,#252
 305 0008 426C     	 ldr r2,[r0,#68]
 306 000a 044B     	 ldr r3,.L48
 307 000c 0904     	 lsl r1,r1,#16
 308 000e 1340     	 and r3,r2
 309 0010 4364     	 str r3,[r0,#68]
 310 0012 436C     	 ldr r3,[r0,#68]
 311              	 
 312 0014 1943     	 orr r1,r3
 313 0016 4164     	 str r1,[r0,#68]
 314 0018 7047     	 bx lr
 315              	.L49:
 316 001a C046     	 .align 2
 317              	.L48:
 318 001c FFFFF0FF 	 .word -983041
 320              	 .section .text.XMC_VADC_GLOBAL_BackgroundSetReqSrcEventInterruptNode,"ax",%progbits
 321              	 .align 1
 322              	 .global XMC_VADC_GLOBAL_BackgroundSetReqSrcEventInterruptNode
 323              	 .code 16
 324              	 .thumb_func
 326              	XMC_VADC_GLOBAL_BackgroundSetReqSrcEventInterruptNode:
 327 0000 0329     	 cmp r1,#3
 328 0002 00D9     	 bls .L52
 329 0004 0439     	 sub r1,r1,#4
 330              	.L52:
 331 0006 0F22     	 mov r2,#15
 332 0008 FC30     	 add r0,r0,#252
 333 000a 436C     	 ldr r3,[r0,#68]
 334              	 
 335 000c 9343     	 bic r3,r2
 336 000e 4364     	 str r3,[r0,#68]
 337 0010 436C     	 ldr r3,[r0,#68]
 338 0012 1943     	 orr r1,r3
 339 0014 4164     	 str r1,[r0,#68]
 340 0016 7047     	 bx lr
 342              	 .section .text.XMC_VADC_GROUP_InputClassInit,"ax",%progbits
 343              	 .align 1
 344              	 .global XMC_VADC_GROUP_InputClassInit
 345              	 .code 16
 346              	 .thumb_func
 348              	XMC_VADC_GROUP_InputClassInit:
 349 0000 F0B5     	 push {r4,r5,r6,r7,lr}
 350 0002 002A     	 cmp r2,#0
 351 0004 08D1     	 bne .L54
 352 0006 E026     	 mov r6,#224
 353 0008 CC06     	 lsl r4,r1,#27
 354 000a 4905     	 lsl r1,r1,#21
 355 000c E40E     	 lsr r4,r4,#27
 356 000e 490F     	 lsr r1,r1,#29
 357 0010 1F25     	 mov r5,#31
 358 0012 F600     	 lsl r6,r6,#3
 359 0014 0827     	 mov r7,#8
 360 0016 09E0     	 b .L55
 361              	.L54:
 362 0018 F825     	 mov r5,#248
 363 001a E026     	 mov r6,#224
 364 001c 1022     	 mov r2,#16
 365 001e 1827     	 mov r7,#24
 366 0020 CC02     	 lsl r4,r1,#11
 367 0022 4901     	 lsl r1,r1,#5
 368 0024 E40E     	 lsr r4,r4,#27
 369 0026 490F     	 lsr r1,r1,#29
 370 0028 6D03     	 lsl r5,r5,#13
 371 002a F604     	 lsl r6,r6,#19
 372              	.L55:
 373 002c B940     	 lsl r1,r1,r7
 374 002e 9440     	 lsl r4,r4,r2
 375 0030 9B00     	 lsl r3,r3,#2
 376 0032 C018     	 add r0,r0,r3
 377 0034 A030     	 add r0,r0,#160
 378 0036 0368     	 ldr r3,[r0]
 379              	 
 380 0038 B343     	 bic r3,r6
 381 003a 1943     	 orr r1,r3
 382 003c A943     	 bic r1,r5
 383 003e 2143     	 orr r1,r4
 384 0040 0160     	 str r1,[r0]
 385 0042 F0BD     	 pop {r4,r5,r6,r7,pc}
 387              	 .section .text.XMC_VADC_GROUP_Init,"ax",%progbits
 388              	 .align 1
 389              	 .global XMC_VADC_GROUP_Init
 390              	 .code 16
 391              	 .thumb_func
 393              	XMC_VADC_GROUP_Init:
 394 0000 0022     	 mov r2,#0
 395 0002 F8B5     	 push {r3,r4,r5,r6,r7,lr}
 396 0004 041C     	 mov r4,r0
 397 0006 0D1C     	 mov r5,r1
 398 0008 131C     	 mov r3,r2
 399 000a 4968     	 ldr r1,[r1,#4]
 400 000c FFF7FEFF 	 bl XMC_VADC_GROUP_InputClassInit
 401 0010 201C     	 mov r0,r4
 402 0012 6968     	 ldr r1,[r5,#4]
 403 0014 0122     	 mov r2,#1
 404 0016 0023     	 mov r3,#0
 405 0018 FFF7FEFF 	 bl XMC_VADC_GROUP_InputClassInit
 406 001c 201C     	 mov r0,r4
 407 001e A968     	 ldr r1,[r5,#8]
 408 0020 0022     	 mov r2,#0
 409 0022 0123     	 mov r3,#1
 410 0024 FFF7FEFF 	 bl XMC_VADC_GROUP_InputClassInit
 411 0028 0122     	 mov r2,#1
 412 002a 201C     	 mov r0,r4
 413 002c A968     	 ldr r1,[r5,#8]
 414 002e 131C     	 mov r3,r2
 415 0030 FFF7FEFF 	 bl XMC_VADC_GROUP_InputClassInit
 416 0034 2A69     	 ldr r2,[r5,#16]
 417 0036 231D     	 add r3,r4,#4
 418 0038 DA67     	 str r2,[r3,#124]
 419 003a EA68     	 ldr r2,[r5,#12]
 420 003c B433     	 add r3,r3,#180
 421 003e 1A60     	 str r2,[r3]
 422 0040 6E88     	 ldrh r6,[r5,#2]
 423 0042 EB78     	 ldrb r3,[r5,#3]
 424 0044 2D78     	 ldrb r5,[r5]
 425 0046 B605     	 lsl r6,r6,#22
 426 0048 6D07     	 lsl r5,r5,#29
 427 004a B609     	 lsr r6,r6,#6
 428 004c 6D0F     	 lsr r5,r5,#29
 429 004e 3543     	 orr r5,r6
 430 0050 F826     	 mov r6,#248
 431 0052 8027     	 mov r7,#128
 432 0054 7600     	 lsl r6,r6,#1
 433 0056 A551     	 str r5,[r4,r6]
 434 0058 A559     	 ldr r5,[r4,r6]
 435 005a D806     	 lsl r0,r3,#27
 436 005c 3F06     	 lsl r7,r7,#24
 437 005e 1907     	 lsl r1,r3,#28
 438 0060 C00F     	 lsr r0,r0,#31
 439 0062 3D43     	 orr r5,r7
 440 0064 9A06     	 lsl r2,r3,#26
 441 0066 890F     	 lsr r1,r1,#30
 442 0068 0007     	 lsl r0,r0,#28
 443 006a 2843     	 orr r0,r5
 444 006c D20F     	 lsr r2,r2,#31
 445 006e 5B06     	 lsl r3,r3,#25
 446 0070 8906     	 lsl r1,r1,#26
 447 0072 0143     	 orr r1,r0
 448 0074 DB0F     	 lsr r3,r3,#31
 449 0076 5207     	 lsl r2,r2,#29
 450 0078 0A43     	 orr r2,r1
 451 007a 9B07     	 lsl r3,r3,#30
 452 007c 1343     	 orr r3,r2
 453 007e A351     	 str r3,[r4,r6]
 454              	 
 455 0080 F8BD     	 pop {r3,r4,r5,r6,r7,pc}
 457              	 .section .text.XMC_VADC_GROUP_SetPowerMode,"ax",%progbits
 458              	 .align 1
 459              	 .global XMC_VADC_GROUP_SetPowerMode
 460              	 .code 16
 461              	 .thumb_func
 463              	XMC_VADC_GROUP_SetPowerMode:
 464 0000 0322     	 mov r2,#3
 465 0002 0430     	 add r0,r0,#4
 466 0004 C36F     	 ldr r3,[r0,#124]
 467              	 
 468 0006 9343     	 bic r3,r2
 469 0008 1943     	 orr r1,r3
 470 000a C167     	 str r1,[r0,#124]
 471 000c 7047     	 bx lr
 473              	 .section .text.XMC_VADC_GROUP_SetSyncSlave,"ax",%progbits
 474              	 .align 1
 475              	 .global XMC_VADC_GROUP_SetSyncSlave
 476              	 .code 16
 477              	 .thumb_func
 479              	XMC_VADC_GROUP_SetSyncSlave:
 480 0000 9142     	 cmp r1,r2
 481 0002 9241     	 sbc r2,r2,r2
 482 0004 5242     	 neg r2,r2
 483 0006 8918     	 add r1,r1,r2
 484 0008 0322     	 mov r2,#3
 485 000a C030     	 add r0,r0,#192
 486 000c 0368     	 ldr r3,[r0]
 487              	 
 488 000e 9343     	 bic r3,r2
 489 0010 1943     	 orr r1,r3
 490 0012 0160     	 str r1,[r0]
 491 0014 7047     	 bx lr
 493              	 .section .text.XMC_VADC_GROUP_SetSyncMaster,"ax",%progbits
 494              	 .align 1
 495              	 .global XMC_VADC_GROUP_SetSyncMaster
 496              	 .code 16
 497              	 .thumb_func
 499              	XMC_VADC_GROUP_SetSyncMaster:
 500 0000 0322     	 mov r2,#3
 501 0002 C030     	 add r0,r0,#192
 502 0004 0368     	 ldr r3,[r0]
 503              	 
 504 0006 9343     	 bic r3,r2
 505 0008 0360     	 str r3,[r0]
 506 000a 7047     	 bx lr
 508              	 .section .text.XMC_VADC_GROUP_CheckSlaveReadiness,"ax",%progbits
 509              	 .align 1
 510              	 .global XMC_VADC_GROUP_CheckSlaveReadiness
 511              	 .code 16
 512              	 .thumb_func
 514              	XMC_VADC_GROUP_CheckSlaveReadiness:
 515 0000 074B     	 ldr r3,.L64
 516 0002 9842     	 cmp r0,r3
 517 0004 02D1     	 bne .L62
 518 0006 0029     	 cmp r1,#0
 519 0008 00D1     	 bne .L62
 520 000a 0131     	 add r1,r1,#1
 521              	.L62:
 522 000c 0122     	 mov r2,#1
 523 000e 0331     	 add r1,r1,#3
 524 0010 8A40     	 lsl r2,r2,r1
 525 0012 111C     	 mov r1,r2
 526 0014 C030     	 add r0,r0,#192
 527 0016 0368     	 ldr r3,[r0]
 528              	 
 529 0018 1943     	 orr r1,r3
 530 001a 0160     	 str r1,[r0]
 531 001c 7047     	 bx lr
 532              	.L65:
 533 001e C046     	 .align 2
 534              	.L64:
 535 0020 00080348 	 .word 1208158208
 537              	 .section .text.XMC_VADC_GROUP_IgnoreSlaveReadiness,"ax",%progbits
 538              	 .align 1
 539              	 .global XMC_VADC_GROUP_IgnoreSlaveReadiness
 540              	 .code 16
 541              	 .thumb_func
 543              	XMC_VADC_GROUP_IgnoreSlaveReadiness:
 544 0000 064B     	 ldr r3,.L69
 545 0002 9842     	 cmp r0,r3
 546 0004 02D1     	 bne .L67
 547 0006 0029     	 cmp r1,#0
 548 0008 00D1     	 bne .L67
 549 000a 0131     	 add r1,r1,#1
 550              	.L67:
 551 000c 0122     	 mov r2,#1
 552 000e 0331     	 add r1,r1,#3
 553 0010 8A40     	 lsl r2,r2,r1
 554 0012 C030     	 add r0,r0,#192
 555 0014 0368     	 ldr r3,[r0]
 556              	 
 557 0016 9343     	 bic r3,r2
 558 0018 0360     	 str r3,[r0]
 559 001a 7047     	 bx lr
 560              	.L70:
 561              	 .align 2
 562              	.L69:
 563 001c 00080348 	 .word 1208158208
 565              	 .section .text.XMC_VADC_GROUP_SetSyncSlaveReadySignal,"ax",%progbits
 566              	 .align 1
 567              	 .global XMC_VADC_GROUP_SetSyncSlaveReadySignal
 568              	 .code 16
 569              	 .thumb_func
 571              	XMC_VADC_GROUP_SetSyncSlaveReadySignal:
 572 0000 8A42     	 cmp r2,r1
 573 0002 8941     	 sbc r1,r1,r1
 574 0004 4942     	 neg r1,r1
 575 0006 5218     	 add r2,r2,r1
 576 0008 0121     	 mov r1,#1
 577 000a 0332     	 add r2,r2,#3
 578 000c 9140     	 lsl r1,r1,r2
 579 000e 0A1C     	 mov r2,r1
 580 0010 C030     	 add r0,r0,#192
 581 0012 0368     	 ldr r3,[r0]
 582              	 
 583 0014 1A43     	 orr r2,r3
 584 0016 0260     	 str r2,[r0]
 585 0018 7047     	 bx lr
 587              	 .section .text.XMC_VADC_GROUP_EnableChannelSyncRequest,"ax",%progbits
 588              	 .align 1
 589              	 .global XMC_VADC_GROUP_EnableChannelSyncRequest
 590              	 .code 16
 591              	 .thumb_func
 593              	XMC_VADC_GROUP_EnableChannelSyncRequest:
 594 0000 031C     	 mov r3,r0
 595 0002 C033     	 add r3,r3,#192
 596 0004 1B68     	 ldr r3,[r3]
 597 0006 9B07     	 lsl r3,r3,#30
 598 0008 08D1     	 bne .L73
 599 000a 8022     	 mov r2,#128
 600 000c 8900     	 lsl r1,r1,#2
 601 000e 4118     	 add r1,r0,r1
 602 0010 8020     	 mov r0,#128
 603 0012 9200     	 lsl r2,r2,#2
 604 0014 8B58     	 ldr r3,[r1,r2]
 605 0016 C000     	 lsl r0,r0,#3
 606 0018 0343     	 orr r3,r0
 607 001a 8B50     	 str r3,[r1,r2]
 608              	.L73:
 609              	 
 610 001c 7047     	 bx lr
 612              	 .section .text.XMC_VADC_GROUP_DisableChannelSyncRequest,"ax",%progbits
 613              	 .align 1
 614              	 .global XMC_VADC_GROUP_DisableChannelSyncRequest
 615              	 .code 16
 616              	 .thumb_func
 618              	XMC_VADC_GROUP_DisableChannelSyncRequest:
 619 0000 031C     	 mov r3,r0
 620 0002 C033     	 add r3,r3,#192
 621 0004 1B68     	 ldr r3,[r3]
 622 0006 9B07     	 lsl r3,r3,#30
 623 0008 07D0     	 beq .L75
 624 000a 8022     	 mov r2,#128
 625 000c 8900     	 lsl r1,r1,#2
 626 000e 4118     	 add r1,r0,r1
 627 0010 9200     	 lsl r2,r2,#2
 628 0012 8858     	 ldr r0,[r1,r2]
 629 0014 014B     	 ldr r3,.L80
 630 0016 0340     	 and r3,r0
 631 0018 8B50     	 str r3,[r1,r2]
 632              	.L75:
 633              	 
 634 001a 7047     	 bx lr
 635              	.L81:
 636              	 .align 2
 637              	.L80:
 638 001c FFFBFFFF 	 .word -1025
 640              	 .section .text.XMC_VADC_GROUP_IsConverterBusy,"ax",%progbits
 641              	 .align 1
 642              	 .global XMC_VADC_GROUP_IsConverterBusy
 643              	 .code 16
 644              	 .thumb_func
 646              	XMC_VADC_GROUP_IsConverterBusy:
 647 0000 0430     	 add r0,r0,#4
 648 0002 C06F     	 ldr r0,[r0,#124]
 649              	 
 650 0004 4000     	 lsl r0,r0,#1
 651 0006 C00F     	 lsr r0,r0,#31
 652 0008 7047     	 bx lr
 654              	 .section .text.XMC_VADC_GROUP_SetBoundaries,"ax",%progbits
 655              	 .align 1
 656              	 .global XMC_VADC_GROUP_SetBoundaries
 657              	 .code 16
 658              	 .thumb_func
 660              	XMC_VADC_GROUP_SetBoundaries:
 661 0000 10B5     	 push {r4,lr}
 662 0002 B830     	 add r0,r0,#184
 663 0004 0468     	 ldr r4,[r0]
 664 0006 034B     	 ldr r3,.L84
 665 0008 1204     	 lsl r2,r2,#16
 666 000a 2340     	 and r3,r4
 667 000c 1143     	 orr r1,r2
 668 000e 1943     	 orr r1,r3
 669 0010 0160     	 str r1,[r0]
 670              	 
 671 0012 10BD     	 pop {r4,pc}
 672              	.L85:
 673              	 .align 2
 674              	.L84:
 675 0014 00F000F0 	 .word -268374016
 677              	 .section .text.XMC_VADC_GROUP_SetIndividualBoundary,"ax",%progbits
 678              	 .align 1
 679              	 .global XMC_VADC_GROUP_SetIndividualBoundary
 680              	 .code 16
 681              	 .thumb_func
 683              	XMC_VADC_GROUP_SetIndividualBoundary:
 684 0000 B830     	 add r0,r0,#184
 685 0002 0368     	 ldr r3,[r0]
 686 0004 0029     	 cmp r1,#0
 687 0006 02D1     	 bne .L87
 688 0008 1B0B     	 lsr r3,r3,#12
 689 000a 1B03     	 lsl r3,r3,#12
 690 000c 04E0     	 b .L89
 691              	.L87:
 692 000e 0129     	 cmp r1,#1
 693 0010 03D1     	 bne .L88
 694 0012 0349     	 ldr r1,.L90
 695 0014 1204     	 lsl r2,r2,#16
 696 0016 0B40     	 and r3,r1
 697              	.L89:
 698 0018 1343     	 orr r3,r2
 699              	.L88:
 700 001a 0360     	 str r3,[r0]
 701              	 
 702 001c 7047     	 bx lr
 703              	.L91:
 704 001e C046     	 .align 2
 705              	.L90:
 706 0020 FFFF00F0 	 .word -268369921
 708              	 .section .text.XMC_VADC_GROUP_TriggerServiceRequest,"ax",%progbits
 709              	 .align 1
 710              	 .global XMC_VADC_GROUP_TriggerServiceRequest
 711              	 .code 16
 712              	 .thumb_func
 714              	XMC_VADC_GROUP_TriggerServiceRequest:
 715 0000 E423     	 mov r3,#228
 716 0002 5B00     	 lsl r3,r3,#1
 717 0004 30B5     	 push {r4,r5,lr}
 718 0006 C458     	 ldr r4,[r0,r3]
 719 0008 1D1C     	 mov r5,r3
 720 000a C83B     	 sub r3,r3,#200
 721 000c FF3B     	 sub r3,r3,#255
 722 000e 002A     	 cmp r2,#0
 723 0010 00D0     	 beq .L96
 724 0012 0831     	 add r1,r1,#8
 725              	.L96:
 726 0014 8B40     	 lsl r3,r3,r1
 727 0016 2343     	 orr r3,r4
 728 0018 4351     	 str r3,[r0,r5]
 729              	 
 730 001a 30BD     	 pop {r4,r5,pc}
 732              	 .section .text.XMC_VADC_GROUP_SetBoundaryEventInterruptNode,"ax",%progbits
 733              	 .align 1
 734              	 .global XMC_VADC_GROUP_SetBoundaryEventInterruptNode
 735              	 .code 16
 736              	 .thumb_func
 738              	XMC_VADC_GROUP_SetBoundaryEventInterruptNode:
 739 0000 10B5     	 push {r4,lr}
 740 0002 0F24     	 mov r4,#15
 741 0004 8900     	 lsl r1,r1,#2
 742 0006 8A40     	 lsl r2,r2,r1
 743 0008 8C40     	 lsl r4,r4,r1
 744 000a 111C     	 mov r1,r2
 745 000c D430     	 add r0,r0,#212
 746 000e 0368     	 ldr r3,[r0]
 747              	 
 748 0010 A343     	 bic r3,r4
 749 0012 0360     	 str r3,[r0]
 750 0014 0368     	 ldr r3,[r0]
 751 0016 1943     	 orr r1,r3
 752 0018 0160     	 str r1,[r0]
 753 001a 10BD     	 pop {r4,pc}
 755              	 .section .text.XMC_VADC_GLOBAL_SHS_Init,"ax",%progbits
 756              	 .align 1
 757              	 .global XMC_VADC_GLOBAL_SHS_Init
 758              	 .code 16
 759              	 .thumb_func
 761              	XMC_VADC_GLOBAL_SHS_Init:
 762 0000 8023     	 mov r3,#128
 763 0002 0A68     	 ldr r2,[r1]
 764 0004 1B02     	 lsl r3,r3,#8
 765 0006 1343     	 orr r3,r2
 766 0008 0122     	 mov r2,#1
 767 000a 0364     	 str r3,[r0,#64]
 768 000c BC30     	 add r0,r0,#188
 769 000e 0368     	 ldr r3,[r0]
 770              	 
 771 0010 9343     	 bic r3,r2
 772 0012 0360     	 str r3,[r0]
 773 0014 0368     	 ldr r3,[r0]
 774 0016 0A79     	 ldrb r2,[r1,#4]
 775 0018 1343     	 orr r3,r2
 776 001a 0360     	 str r3,[r0]
 777 001c 7047     	 bx lr
 779              	 .section .text.XMC_VADC_GLOBAL_SHS_EnableAcceleratedMode,"ax",%progbits
 780              	 .align 1
 781              	 .global XMC_VADC_GLOBAL_SHS_EnableAcceleratedMode
 782              	 .code 16
 783              	 .thumb_func
 785              	XMC_VADC_GLOBAL_SHS_EnableAcceleratedMode:
 786 0000 0029     	 cmp r1,#0
 787 0002 05D1     	 bne .L100
 788 0004 0122     	 mov r2,#1
 789 0006 0430     	 add r0,r0,#4
 790 0008 C36F     	 ldr r3,[r0,#124]
 791 000a 1343     	 orr r3,r2
 792 000c C367     	 str r3,[r0,#124]
 793 000e 05E0     	 b .L99
 794              	.L100:
 795 0010 0129     	 cmp r1,#1
 796 0012 03D1     	 bne .L99
 797 0014 0830     	 add r0,r0,#8
 798 0016 C36F     	 ldr r3,[r0,#124]
 799 0018 1943     	 orr r1,r3
 800 001a C167     	 str r1,[r0,#124]
 801              	.L99:
 802              	 
 803 001c 7047     	 bx lr
 805              	 .section .text.XMC_VADC_GLOBAL_SHS_DisableAcceleratedMode,"ax",%progbits
 806              	 .align 1
 807              	 .global XMC_VADC_GLOBAL_SHS_DisableAcceleratedMode
 808              	 .code 16
 809              	 .thumb_func
 811              	XMC_VADC_GLOBAL_SHS_DisableAcceleratedMode:
 812 0000 0029     	 cmp r1,#0
 813 0002 04D1     	 bne .L103
 814 0004 0122     	 mov r2,#1
 815 0006 0430     	 add r0,r0,#4
 816 0008 C36F     	 ldr r3,[r0,#124]
 817 000a 9343     	 bic r3,r2
 818 000c 04E0     	 b .L105
 819              	.L103:
 820 000e 0129     	 cmp r1,#1
 821 0010 03D1     	 bne .L102
 822 0012 0830     	 add r0,r0,#8
 823 0014 C36F     	 ldr r3,[r0,#124]
 824 0016 8B43     	 bic r3,r1
 825              	.L105:
 826 0018 C367     	 str r3,[r0,#124]
 827              	.L102:
 828              	 
 829 001a 7047     	 bx lr
 831              	 .section .text.XMC_VADC_GLOBAL_SHS_SetShortSampleTime,"ax",%progbits
 832              	 .align 1
 833              	 .global XMC_VADC_GLOBAL_SHS_SetShortSampleTime
 834              	 .code 16
 835              	 .thumb_func
 837              	XMC_VADC_GLOBAL_SHS_SetShortSampleTime:
 838 0000 0029     	 cmp r1,#0
 839 0002 01D1     	 bne .L107
 840 0004 0430     	 add r0,r0,#4
 841 0006 02E0     	 b .L109
 842              	.L107:
 843 0008 0129     	 cmp r1,#1
 844 000a 08D1     	 bne .L106
 845 000c 0830     	 add r0,r0,#8
 846              	.L109:
 847 000e C16F     	 ldr r1,[r0,#124]
 848 0010 034B     	 ldr r3,.L110
 849 0012 1202     	 lsl r2,r2,#8
 850 0014 0B40     	 and r3,r1
 851 0016 C367     	 str r3,[r0,#124]
 852 0018 C36F     	 ldr r3,[r0,#124]
 853 001a 1A43     	 orr r2,r3
 854 001c C267     	 str r2,[r0,#124]
 855              	.L106:
 856              	 
 857 001e 7047     	 bx lr
 858              	.L111:
 859              	 .align 2
 860              	.L110:
 861 0020 FFC0FFFF 	 .word -16129
 863              	 .section .text.XMC_VADC_GLOBAL_SHS_SetGainFactor,"ax",%progbits
 864              	 .align 1
 865              	 .global XMC_VADC_GLOBAL_SHS_SetGainFactor
 866              	 .code 16
 867              	 .thumb_func
 869              	XMC_VADC_GLOBAL_SHS_SetGainFactor:
 870 0000 30B5     	 push {r4,r5,lr}
 871 0002 9B00     	 lsl r3,r3,#2
 872 0004 002A     	 cmp r2,#0
 873 0006 01D1     	 bne .L113
 874 0008 8132     	 add r2,r2,#129
 875 000a 02E0     	 b .L115
 876              	.L113:
 877 000c 012A     	 cmp r2,#1
 878 000e 0BD1     	 bne .L112
 879 0010 9032     	 add r2,r2,#144
 880              	.L115:
 881 0012 0F25     	 mov r5,#15
 882 0014 9940     	 lsl r1,r1,r3
 883 0016 9D40     	 lsl r5,r5,r3
 884 0018 0B1C     	 mov r3,r1
 885 001a FF32     	 add r2,r2,#255
 886 001c 8458     	 ldr r4,[r0,r2]
 887 001e AC43     	 bic r4,r5
 888 0020 8450     	 str r4,[r0,r2]
 889 0022 8458     	 ldr r4,[r0,r2]
 890 0024 2343     	 orr r3,r4
 891 0026 8350     	 str r3,[r0,r2]
 892              	.L112:
 893              	 
 894 0028 30BD     	 pop {r4,r5,pc}
 896              	 .section .text.XMC_VADC_GLOBAL_SHS_EnableGainAndOffsetCalibrations,"ax",%progbits
 897              	 .align 1
 898              	 .global XMC_VADC_GLOBAL_SHS_EnableGainAndOffsetCalibrations
 899              	 .code 16
 900              	 .thumb_func
 902              	XMC_VADC_GLOBAL_SHS_EnableGainAndOffsetCalibrations:
 903 0000 0029     	 cmp r1,#0
 904 0002 01D1     	 bne .L117
 905 0004 E030     	 add r0,r0,#224
 906 0006 02E0     	 b .L119
 907              	.L117:
 908 0008 0129     	 cmp r1,#1
 909 000a 04D1     	 bne .L116
 910 000c E430     	 add r0,r0,#228
 911              	.L119:
 912 000e 0368     	 ldr r3,[r0]
 913 0010 5B00     	 lsl r3,r3,#1
 914 0012 5B08     	 lsr r3,r3,#1
 915 0014 0360     	 str r3,[r0]
 916              	.L116:
 917              	 
 918 0016 7047     	 bx lr
 920              	 .section .text.XMC_VADC_GLOBAL_SHS_DisableGainAndOffsetCalibrations,"ax",%progbits
 921              	 .align 1
 922              	 .global XMC_VADC_GLOBAL_SHS_DisableGainAndOffsetCalibrations
 923              	 .code 16
 924              	 .thumb_func
 926              	XMC_VADC_GLOBAL_SHS_DisableGainAndOffsetCalibrations:
 927 0000 0029     	 cmp r1,#0
 928 0002 01D1     	 bne .L121
 929 0004 E030     	 add r0,r0,#224
 930 0006 02E0     	 b .L123
 931              	.L121:
 932 0008 0129     	 cmp r1,#1
 933 000a 05D1     	 bne .L120
 934 000c E430     	 add r0,r0,#228
 935              	.L123:
 936 000e 8022     	 mov r2,#128
 937 0010 0368     	 ldr r3,[r0]
 938 0012 1206     	 lsl r2,r2,#24
 939 0014 1343     	 orr r3,r2
 940 0016 0360     	 str r3,[r0]
 941              	.L120:
 942              	 
 943 0018 7047     	 bx lr
 945              	 .section .text.XMC_VADC_GLOBAL_SHS_GetOffsetCalibrationValue,"ax",%progbits
 946              	 .align 1
 947              	 .global XMC_VADC_GLOBAL_SHS_GetOffsetCalibrationValue
 948              	 .code 16
 949              	 .thumb_func
 951              	XMC_VADC_GLOBAL_SHS_GetOffsetCalibrationValue:
 952 0000 0029     	 cmp r1,#0
 953 0002 01D1     	 bne .L125
 954 0004 E030     	 add r0,r0,#224
 955 0006 03E0     	 b .L128
 956              	.L125:
 957 0008 0023     	 mov r3,#0
 958 000a 0129     	 cmp r1,#1
 959 000c 05D1     	 bne .L126
 960 000e E430     	 add r0,r0,#228
 961              	.L128:
 962 0010 0168     	 ldr r1,[r0]
 963 0012 0B1C     	 mov r3,r1
 964 0014 7F21     	 mov r1,#127
 965 0016 D340     	 lsr r3,r3,r2
 966 0018 0B40     	 and r3,r1
 967              	.L126:
 968 001a D8B2     	 uxtb r0,r3
 969              	 
 970 001c 7047     	 bx lr
 972              	 .section .text.XMC_VADC_GLOBAL_SHS_SetOffsetCalibrationValue,"ax",%progbits
 973              	 .align 1
 974              	 .global XMC_VADC_GLOBAL_SHS_SetOffsetCalibrationValue
 975              	 .code 16
 976              	 .thumb_func
 978              	XMC_VADC_GLOBAL_SHS_SetOffsetCalibrationValue:
 979 0000 10B5     	 push {r4,lr}
 980 0002 0029     	 cmp r1,#0
 981 0004 0FD1     	 bne .L130
 982 0006 7F24     	 mov r4,#127
 983 0008 9440     	 lsl r4,r4,r2
 984 000a E030     	 add r0,r0,#224
 985 000c 0168     	 ldr r1,[r0]
 986 000e 9340     	 lsl r3,r3,r2
 987 0010 A143     	 bic r1,r4
 988 0012 8024     	 mov r4,#128
 989 0014 2402     	 lsl r4,r4,#8
 990 0016 2143     	 orr r1,r4
 991 0018 0160     	 str r1,[r0]
 992 001a 0168     	 ldr r1,[r0]
 993 001c 2143     	 orr r1,r4
 994 001e 0A1C     	 mov r2,r1
 995 0020 1A43     	 orr r2,r3
 996 0022 0260     	 str r2,[r0]
 997 0024 11E0     	 b .L129
 998              	.L130:
 999 0026 0129     	 cmp r1,#1
 1000 0028 0FD1     	 bne .L129
 1001 002a 7F24     	 mov r4,#127
 1002 002c 9440     	 lsl r4,r4,r2
 1003 002e E430     	 add r0,r0,#228
 1004 0030 0168     	 ldr r1,[r0]
 1005 0032 9340     	 lsl r3,r3,r2
 1006 0034 A143     	 bic r1,r4
 1007 0036 8024     	 mov r4,#128
 1008 0038 2402     	 lsl r4,r4,#8
 1009 003a 2143     	 orr r1,r4
 1010 003c 0160     	 str r1,[r0]
 1011 003e 0168     	 ldr r1,[r0]
 1012 0040 1A1C     	 mov r2,r3
 1013 0042 2143     	 orr r1,r4
 1014 0044 0B1C     	 mov r3,r1
 1015 0046 1343     	 orr r3,r2
 1016 0048 0360     	 str r3,[r0]
 1017              	.L129:
 1018              	 
 1019 004a 10BD     	 pop {r4,pc}
 1021              	 .section .text.XMC_VADC_GLOBAL_SHS_SetSigmaDeltaLoop,"ax",%progbits
 1022              	 .align 1
 1023              	 .global XMC_VADC_GLOBAL_SHS_SetSigmaDeltaLoop
 1024              	 .code 16
 1025              	 .thumb_func
 1027              	XMC_VADC_GLOBAL_SHS_SetSigmaDeltaLoop:
 1028 0000 30B5     	 push {r4,r5,lr}
 1029 0002 064D     	 ldr r5,.L133
 1030 0004 0902     	 lsl r1,r1,#8
 1031 0006 9540     	 lsl r5,r5,r2
 1032 0008 0B43     	 orr r3,r1
 1033 000a 9340     	 lsl r3,r3,r2
 1034 000c 046D     	 ldr r4,[r0,#80]
 1035              	 
 1036 000e AC43     	 bic r4,r5
 1037 0010 0465     	 str r4,[r0,#80]
 1038 0012 046D     	 ldr r4,[r0,#80]
 1039 0014 2343     	 orr r3,r4
 1040 0016 0365     	 str r3,[r0,#80]
 1041 0018 30BD     	 pop {r4,r5,pc}
 1042              	.L134:
 1043 001a C046     	 .align 2
 1044              	.L133:
 1045 001c 1F810000 	 .word 33055
 1047              	 .section .text.XMC_VADC_GROUP_ScanInit,"ax",%progbits
 1048              	 .align 1
 1049              	 .global XMC_VADC_GROUP_ScanInit
 1050              	 .code 16
 1051              	 .thumb_func
 1053              	XMC_VADC_GROUP_ScanInit:
 1054 0000 30B5     	 push {r4,r5,lr}
 1055 0002 041C     	 mov r4,r0
 1056 0004 0834     	 add r4,r4,#8
 1057 0006 E26F     	 ldr r2,[r4,#124]
 1058 0008 134B     	 ldr r3,.L141
 1059 000a 0D78     	 ldrb r5,[r1]
 1060 000c 1340     	 and r3,r2
 1061 000e 3022     	 mov r2,#48
 1062 0010 E367     	 str r3,[r4,#124]
 1063 0012 E36F     	 ldr r3,[r4,#124]
 1064 0014 9343     	 bic r3,r2
 1065 0016 1A1C     	 mov r2,r3
 1066 0018 2B07     	 lsl r3,r5,#28
 1067 001a 9B0F     	 lsr r3,r3,#30
 1068 001c 1B01     	 lsl r3,r3,#4
 1069 001e 1343     	 orr r3,r2
 1070 0020 0322     	 mov r2,#3
 1071 0022 2A40     	 and r2,r5
 1072 0024 01D0     	 beq .L136
 1073 0026 8025     	 mov r5,#128
 1074 0028 2B43     	 orr r3,r5
 1075              	.L136:
 1076 002a E367     	 str r3,[r4,#124]
 1077 002c 4D68     	 ldr r5,[r1,#4]
 1078 002e 0B4B     	 ldr r3,.L141+4
 1079 0030 FC30     	 add r0,r0,#252
 1080 0032 2B43     	 orr r3,r5
 1081 0034 4362     	 str r3,[r0,#36]
 1082 0036 8B68     	 ldr r3,[r1,#8]
 1083 0038 0121     	 mov r1,#1
 1084 003a 0B43     	 orr r3,r1
 1085 003c 8362     	 str r3,[r0,#40]
 1086 003e 022A     	 cmp r2,#2
 1087 0040 04D1     	 bne .L137
 1088 0042 8022     	 mov r2,#128
 1089 0044 836A     	 ldr r3,[r0,#40]
 1090 0046 5202     	 lsl r2,r2,#9
 1091 0048 1343     	 orr r3,r2
 1092 004a 8362     	 str r3,[r0,#40]
 1093              	.L137:
 1094 004c 8022     	 mov r2,#128
 1095 004e E36F     	 ldr r3,[r4,#124]
 1096 0050 9204     	 lsl r2,r2,#18
 1097 0052 1343     	 orr r3,r2
 1098 0054 E367     	 str r3,[r4,#124]
 1099              	 
 1100 0056 30BD     	 pop {r4,r5,pc}
 1101              	.L142:
 1102              	 .align 2
 1103              	.L141:
 1104 0058 FFFFFFFD 	 .word -33554433
 1105 005c 00808080 	 .word -2139062272
 1107              	 .section .text.XMC_VADC_GROUP_ScanSelectTrigger,"ax",%progbits
 1108              	 .align 1
 1109              	 .global XMC_VADC_GROUP_ScanSelectTrigger
 1110              	 .code 16
 1111              	 .thumb_func
 1113              	XMC_VADC_GROUP_ScanSelectTrigger:
 1114 0000 FC30     	 add r0,r0,#252
 1115 0002 426A     	 ldr r2,[r0,#36]
 1116 0004 044B     	 ldr r3,.L144
 1117 0006 0902     	 lsl r1,r1,#8
 1118 0008 1340     	 and r3,r2
 1119 000a 8022     	 mov r2,#128
 1120 000c 1202     	 lsl r2,r2,#8
 1121 000e 1343     	 orr r3,r2
 1122 0010 1943     	 orr r1,r3
 1123 0012 4162     	 str r1,[r0,#36]
 1124              	 
 1125 0014 7047     	 bx lr
 1126              	.L145:
 1127 0016 C046     	 .align 2
 1128              	.L144:
 1129 0018 FFF0FFFF 	 .word -3841
 1131              	 .section .text.XMC_VADC_GROUP_ScanSelectTriggerEdge,"ax",%progbits
 1132              	 .align 1
 1133              	 .global XMC_VADC_GROUP_ScanSelectTriggerEdge
 1134              	 .code 16
 1135              	 .thumb_func
 1137              	XMC_VADC_GROUP_ScanSelectTriggerEdge:
 1138 0000 FC30     	 add r0,r0,#252
 1139 0002 426A     	 ldr r2,[r0,#36]
 1140 0004 044B     	 ldr r3,.L147
 1141 0006 4903     	 lsl r1,r1,#13
 1142 0008 1340     	 and r3,r2
 1143 000a 8022     	 mov r2,#128
 1144 000c 1202     	 lsl r2,r2,#8
 1145 000e 1343     	 orr r3,r2
 1146 0010 1943     	 orr r1,r3
 1147 0012 4162     	 str r1,[r0,#36]
 1148              	 
 1149 0014 7047     	 bx lr
 1150              	.L148:
 1151 0016 C046     	 .align 2
 1152              	.L147:
 1153 0018 FF9FFFFF 	 .word -24577
 1155              	 .section .text.XMC_VADC_GROUP_ScanSelectGating,"ax",%progbits
 1156              	 .align 1
 1157              	 .global XMC_VADC_GROUP_ScanSelectGating
 1158              	 .code 16
 1159              	 .thumb_func
 1161              	XMC_VADC_GROUP_ScanSelectGating:
 1162 0000 FC30     	 add r0,r0,#252
 1163 0002 426A     	 ldr r2,[r0,#36]
 1164 0004 044B     	 ldr r3,.L150
 1165 0006 0904     	 lsl r1,r1,#16
 1166 0008 1340     	 and r3,r2
 1167 000a 8022     	 mov r2,#128
 1168 000c 1204     	 lsl r2,r2,#16
 1169 000e 1343     	 orr r3,r2
 1170 0010 1943     	 orr r1,r3
 1171 0012 4162     	 str r1,[r0,#36]
 1172              	 
 1173 0014 7047     	 bx lr
 1174              	.L151:
 1175 0016 C046     	 .align 2
 1176              	.L150:
 1177 0018 FFFFF0FF 	 .word -983041
 1179              	 .section .text.XMC_VADC_GROUP_ScanSequenceAbort,"ax",%progbits
 1180              	 .align 1
 1181              	 .global XMC_VADC_GROUP_ScanSequenceAbort
 1182              	 .code 16
 1183              	 .thumb_func
 1185              	XMC_VADC_GROUP_ScanSequenceAbort:
 1186 0000 031C     	 mov r3,r0
 1187 0002 70B5     	 push {r4,r5,r6,lr}
 1188 0004 0D4D     	 ldr r5,.L153
 1189 0006 FC33     	 add r3,r3,#252
 1190 0008 5A6A     	 ldr r2,[r3,#36]
 1191 000a 0830     	 add r0,r0,#8
 1192 000c 5D62     	 str r5,[r3,#36]
 1193 000e C66F     	 ldr r6,[r0,#124]
 1194 0010 0B49     	 ldr r1,.L153+4
 1195 0012 C46F     	 ldr r4,[r0,#124]
 1196 0014 2A43     	 orr r2,r5
 1197 0016 2140     	 and r1,r4
 1198 0018 0324     	 mov r4,#3
 1199 001a C167     	 str r1,[r0,#124]
 1200 001c 996A     	 ldr r1,[r3,#40]
 1201              	 
 1202 001e A143     	 bic r1,r4
 1203 0020 9962     	 str r1,[r3,#40]
 1204 0022 8021     	 mov r1,#128
 1205 0024 9C6A     	 ldr r4,[r3,#40]
 1206 0026 4900     	 lsl r1,r1,#1
 1207 0028 0C43     	 orr r4,r1
 1208 002a 8021     	 mov r1,#128
 1209 002c 9C62     	 str r4,[r3,#40]
 1210 002e C46F     	 ldr r4,[r0,#124]
 1211 0030 8904     	 lsl r1,r1,#18
 1212 0032 3140     	 and r1,r6
 1213 0034 2143     	 orr r1,r4
 1214 0036 C167     	 str r1,[r0,#124]
 1215 0038 5A62     	 str r2,[r3,#36]
 1216 003a 70BD     	 pop {r4,r5,r6,pc}
 1217              	.L154:
 1218              	 .align 2
 1219              	.L153:
 1220 003c 00808080 	 .word -2139062272
 1221 0040 FFFFFFFD 	 .word -33554433
 1223              	 .section .text.XMC_VADC_GROUP_ScanGetNumChannelsPending,"ax",%progbits
 1224              	 .align 1
 1225              	 .global XMC_VADC_GROUP_ScanGetNumChannelsPending
 1226              	 .code 16
 1227              	 .thumb_func
 1229              	XMC_VADC_GROUP_ScanGetNumChannelsPending:
 1230 0000 031C     	 mov r3,r0
 1231 0002 0020     	 mov r0,#0
 1232 0004 FC33     	 add r3,r3,#252
 1233 0006 1A6B     	 ldr r2,[r3,#48]
 1234 0008 8242     	 cmp r2,r0
 1235 000a 08D0     	 beq .L156
 1236 000c 1A6B     	 ldr r2,[r3,#48]
 1237 000e 0823     	 mov r3,#8
 1238              	.L158:
 1239 0010 0121     	 mov r1,#1
 1240 0012 013B     	 sub r3,r3,#1
 1241 0014 1140     	 and r1,r2
 1242 0016 4018     	 add r0,r0,r1
 1243 0018 5208     	 lsr r2,r2,#1
 1244 001a 002B     	 cmp r3,#0
 1245 001c F8D1     	 bne .L158
 1246              	.L156:
 1247              	 
 1248 001e 7047     	 bx lr
 1250              	 .section .text.XMC_VADC_GROUP_ScanSetReqSrcEventInterruptNode,"ax",%progbits
 1251              	 .align 1
 1252              	 .global XMC_VADC_GROUP_ScanSetReqSrcEventInterruptNode
 1253              	 .code 16
 1254              	 .thumb_func
 1256              	XMC_VADC_GROUP_ScanSetReqSrcEventInterruptNode:
 1257 0000 E022     	 mov r2,#224
 1258 0002 10B5     	 push {r4,lr}
 1259 0004 F024     	 mov r4,#240
 1260 0006 5200     	 lsl r2,r2,#1
 1261 0008 8358     	 ldr r3,[r0,r2]
 1262 000a 0901     	 lsl r1,r1,#4
 1263 000c A343     	 bic r3,r4
 1264 000e 1943     	 orr r1,r3
 1265 0010 8150     	 str r1,[r0,r2]
 1266              	 
 1267 0012 10BD     	 pop {r4,pc}
 1269              	 .section .text.XMC_VADC_GROUP_ScanRemoveChannel,"ax",%progbits
 1270              	 .align 1
 1271              	 .global XMC_VADC_GROUP_ScanRemoveChannel
 1272              	 .code 16
 1273              	 .thumb_func
 1275              	XMC_VADC_GROUP_ScanRemoveChannel:
 1276 0000 0122     	 mov r2,#1
 1277 0002 8A40     	 lsl r2,r2,r1
 1278 0004 FC30     	 add r0,r0,#252
 1279 0006 C36A     	 ldr r3,[r0,#44]
 1280              	 
 1281 0008 9343     	 bic r3,r2
 1282 000a C362     	 str r3,[r0,#44]
 1283 000c 7047     	 bx lr
 1285              	 .section .text.XMC_VADC_GLOBAL_BackgroundInit,"ax",%progbits
 1286              	 .align 1
 1287              	 .global XMC_VADC_GLOBAL_BackgroundInit
 1288              	 .code 16
 1289              	 .thumb_func
 1291              	XMC_VADC_GLOBAL_BackgroundInit:
 1292 0000 8C46     	 mov ip,r1
 1293 0002 F0B5     	 push {r4,r5,r6,r7,lr}
 1294 0004 1E4C     	 ldr r4,.L169
 1295 0006 1F4B     	 ldr r3,.L169+4
 1296 0008 E26F     	 ldr r2,[r4,#124]
 1297 000a 1F4F     	 ldr r7,.L169+8
 1298 000c 1A40     	 and r2,r3
 1299 000e E267     	 str r2,[r4,#124]
 1300 0010 1E4A     	 ldr r2,.L169+12
 1301 0012 D16F     	 ldr r1,[r2,#124]
 1302 0014 0B40     	 and r3,r1
 1303 0016 D367     	 str r3,[r2,#124]
 1304 0018 6346     	 mov r3,ip
 1305 001a 0321     	 mov r1,#3
 1306 001c 1B78     	 ldrb r3,[r3]
 1307 001e 1940     	 and r1,r3
 1308 0020 0E1C     	 mov r6,r1
 1309 0022 751E     	 sub r5,r6,#1
 1310 0024 AE41     	 sbc r6,r6,r5
 1311 0026 1B07     	 lsl r3,r3,#28
 1312 0028 E56F     	 ldr r5,[r4,#124]
 1313 002a 9B0F     	 lsr r3,r3,#30
 1314 002c 3D40     	 and r5,r7
 1315 002e 1B02     	 lsl r3,r3,#8
 1316 0030 F602     	 lsl r6,r6,#11
 1317 0032 1D43     	 orr r5,r3
 1318 0034 3543     	 orr r5,r6
 1319 0036 E567     	 str r5,[r4,#124]
 1320 0038 D56F     	 ldr r5,[r2,#124]
 1321 003a 2F40     	 and r7,r5
 1322 003c 6546     	 mov r5,ip
 1323 003e 3B43     	 orr r3,r7
 1324 0040 3343     	 orr r3,r6
 1325 0042 D367     	 str r3,[r2,#124]
 1326 0044 6D68     	 ldr r5,[r5,#4]
 1327 0046 124B     	 ldr r3,.L169+16
 1328 0048 2B43     	 orr r3,r5
 1329 004a 8025     	 mov r5,#128
 1330 004c AD00     	 lsl r5,r5,#2
 1331 004e 4351     	 str r3,[r0,r5]
 1332 0050 6346     	 mov r3,ip
 1333 0052 0125     	 mov r5,#1
 1334 0054 9B68     	 ldr r3,[r3,#8]
 1335 0056 1D43     	 orr r5,r3
 1336 0058 8123     	 mov r3,#129
 1337 005a 9B00     	 lsl r3,r3,#2
 1338 005c C550     	 str r5,[r0,r3]
 1339 005e 0229     	 cmp r1,#2
 1340 0060 04D1     	 bne .L167
 1341 0062 8025     	 mov r5,#128
 1342 0064 C158     	 ldr r1,[r0,r3]
 1343 0066 6D02     	 lsl r5,r5,#9
 1344 0068 2943     	 orr r1,r5
 1345 006a C150     	 str r1,[r0,r3]
 1346              	.L167:
 1347 006c 8020     	 mov r0,#128
 1348 006e E16F     	 ldr r1,[r4,#124]
 1349 0070 C004     	 lsl r0,r0,#19
 1350 0072 0143     	 orr r1,r0
 1351 0074 E167     	 str r1,[r4,#124]
 1352 0076 D36F     	 ldr r3,[r2,#124]
 1353              	 
 1354 0078 0343     	 orr r3,r0
 1355 007a D367     	 str r3,[r2,#124]
 1356 007c F0BD     	 pop {r4,r5,r6,r7,pc}
 1357              	.L170:
 1358 007e C046     	 .align 2
 1359              	.L169:
 1360 0080 08040348 	 .word 1208157192
 1361 0084 FFFFFFFB 	 .word -67108865
 1362 0088 FFFCFFFF 	 .word -769
 1363 008c 08080348 	 .word 1208158216
 1364 0090 00808000 	 .word 8421376
 1366              	 .section .text.XMC_VADC_GLOBAL_BackgroundSelectTrigger,"ax",%progbits
 1367              	 .align 1
 1368              	 .global XMC_VADC_GLOBAL_BackgroundSelectTrigger
 1369              	 .code 16
 1370              	 .thumb_func
 1372              	XMC_VADC_GLOBAL_BackgroundSelectTrigger:
 1373 0000 8022     	 mov r2,#128
 1374 0002 9200     	 lsl r2,r2,#2
 1375 0004 10B5     	 push {r4,lr}
 1376 0006 054B     	 ldr r3,.L172
 1377 0008 8458     	 ldr r4,[r0,r2]
 1378 000a 0902     	 lsl r1,r1,#8
 1379 000c 2340     	 and r3,r4
 1380 000e 8024     	 mov r4,#128
 1381 0010 2402     	 lsl r4,r4,#8
 1382 0012 2343     	 orr r3,r4
 1383 0014 1943     	 orr r1,r3
 1384 0016 8150     	 str r1,[r0,r2]
 1385              	 
 1386 0018 10BD     	 pop {r4,pc}
 1387              	.L173:
 1388 001a C046     	 .align 2
 1389              	.L172:
 1390 001c FFF0FFFF 	 .word -3841
 1392              	 .section .text.XMC_VADC_GLOBAL_BackgroundSelectTriggerEdge,"ax",%progbits
 1393              	 .align 1
 1394              	 .global XMC_VADC_GLOBAL_BackgroundSelectTriggerEdge
 1395              	 .code 16
 1396              	 .thumb_func
 1398              	XMC_VADC_GLOBAL_BackgroundSelectTriggerEdge:
 1399 0000 8022     	 mov r2,#128
 1400 0002 9200     	 lsl r2,r2,#2
 1401 0004 10B5     	 push {r4,lr}
 1402 0006 054B     	 ldr r3,.L175
 1403 0008 8458     	 ldr r4,[r0,r2]
 1404 000a 4903     	 lsl r1,r1,#13
 1405 000c 2340     	 and r3,r4
 1406 000e 8024     	 mov r4,#128
 1407 0010 2402     	 lsl r4,r4,#8
 1408 0012 2343     	 orr r3,r4
 1409 0014 1943     	 orr r1,r3
 1410 0016 8150     	 str r1,[r0,r2]
 1411              	 
 1412 0018 10BD     	 pop {r4,pc}
 1413              	.L176:
 1414 001a C046     	 .align 2
 1415              	.L175:
 1416 001c FF9FFFFF 	 .word -24577
 1418              	 .section .text.XMC_VADC_GLOBAL_BackgroundSelectGating,"ax",%progbits
 1419              	 .align 1
 1420              	 .global XMC_VADC_GLOBAL_BackgroundSelectGating
 1421              	 .code 16
 1422              	 .thumb_func
 1424              	XMC_VADC_GLOBAL_BackgroundSelectGating:
 1425 0000 8022     	 mov r2,#128
 1426 0002 9200     	 lsl r2,r2,#2
 1427 0004 10B5     	 push {r4,lr}
 1428 0006 054B     	 ldr r3,.L178
 1429 0008 8458     	 ldr r4,[r0,r2]
 1430 000a 0904     	 lsl r1,r1,#16
 1431 000c 2340     	 and r3,r4
 1432 000e 8024     	 mov r4,#128
 1433 0010 2404     	 lsl r4,r4,#16
 1434 0012 2343     	 orr r3,r4
 1435 0014 1943     	 orr r1,r3
 1436 0016 8150     	 str r1,[r0,r2]
 1437              	 
 1438 0018 10BD     	 pop {r4,pc}
 1439              	.L179:
 1440 001a C046     	 .align 2
 1441              	.L178:
 1442 001c FFFFF0FF 	 .word -983041
 1444              	 .section .text.XMC_VADC_GLOBAL_BackgroundAbortSequence,"ax",%progbits
 1445              	 .align 1
 1446              	 .global XMC_VADC_GLOBAL_BackgroundAbortSequence
 1447              	 .code 16
 1448              	 .thumb_func
 1450              	XMC_VADC_GLOBAL_BackgroundAbortSequence:
 1451 0000 F7B5     	 push {r0,r1,r2,r4,r5,r6,r7,lr}
 1452 0002 8022     	 mov r2,#128
 1453 0004 9200     	 lsl r2,r2,#2
 1454 0006 8358     	 ldr r3,[r0,r2]
 1455 0008 1549     	 ldr r1,.L183
 1456 000a 0093     	 str r3,[sp]
 1457 000c 154B     	 ldr r3,.L183+4
 1458 000e 164E     	 ldr r6,.L183+8
 1459 0010 8350     	 str r3,[r0,r2]
 1460 0012 CD6F     	 ldr r5,[r1,#124]
 1461 0014 CB6F     	 ldr r3,[r1,#124]
 1462 0016 8024     	 mov r4,#128
 1463 0018 3340     	 and r3,r6
 1464 001a CB67     	 str r3,[r1,#124]
 1465 001c 134B     	 ldr r3,.L183+12
 1466 001e 6400     	 lsl r4,r4,#1
 1467 0020 DF6F     	 ldr r7,[r3,#124]
 1468 0022 AD0E     	 lsr r5,r5,#26
 1469 0024 BF0E     	 lsr r7,r7,#26
 1470 0026 0197     	 str r7,[sp,#4]
 1471 0028 DF6F     	 ldr r7,[r3,#124]
 1472 002a 3E40     	 and r6,r7
 1473 002c 8127     	 mov r7,#129
 1474 002e DE67     	 str r6,[r3,#124]
 1475 0030 BF00     	 lsl r7,r7,#2
 1476 0032 C659     	 ldr r6,[r0,r7]
 1477 0034 2643     	 orr r6,r4
 1478 0036 C651     	 str r6,[r0,r7]
 1479 0038 0A4C     	 ldr r4,.L183+4
 1480 003a 012D     	 cmp r5,#1
 1481 003c 04D1     	 bne .L181
 1482 003e 8026     	 mov r6,#128
 1483 0040 CD6F     	 ldr r5,[r1,#124]
 1484 0042 F604     	 lsl r6,r6,#19
 1485 0044 3543     	 orr r5,r6
 1486 0046 CD67     	 str r5,[r1,#124]
 1487              	.L181:
 1488 0048 0199     	 ldr r1,[sp,#4]
 1489 004a 0129     	 cmp r1,#1
 1490 004c 04D1     	 bne .L182
 1491 004e 8025     	 mov r5,#128
 1492 0050 D96F     	 ldr r1,[r3,#124]
 1493 0052 ED04     	 lsl r5,r5,#19
 1494 0054 2943     	 orr r1,r5
 1495 0056 D967     	 str r1,[r3,#124]
 1496              	.L182:
 1497 0058 009B     	 ldr r3,[sp]
 1498              	 
 1499 005a 1C43     	 orr r4,r3
 1500 005c 8450     	 str r4,[r0,r2]
 1501 005e F7BD     	 pop {r0,r1,r2,r4,r5,r6,r7,pc}
 1502              	.L184:
 1503              	 .align 2
 1504              	.L183:
 1505 0060 08040348 	 .word 1208157192
 1506 0064 00808000 	 .word 8421376
 1507 0068 FFFFFFFB 	 .word -67108865
 1508 006c 08080348 	 .word 1208158216
 1510              	 .section .text.XMC_VADC_GLOBAL_BackgroundGetNumChannelsPending,"ax",%progbits
 1511              	 .align 1
 1512              	 .global XMC_VADC_GLOBAL_BackgroundGetNumChannelsPending
 1513              	 .code 16
 1514              	 .thumb_func
 1516              	XMC_VADC_GLOBAL_BackgroundGetNumChannelsPending:
 1517 0000 0023     	 mov r3,#0
 1518 0002 191C     	 mov r1,r3
 1519 0004 30B5     	 push {r4,r5,lr}
 1520              	.L189:
 1521 0006 C024     	 mov r4,#192
 1522 0008 8A00     	 lsl r2,r1,#2
 1523 000a 8218     	 add r2,r0,r2
 1524 000c 6400     	 lsl r4,r4,#1
 1525 000e 1459     	 ldr r4,[r2,r4]
 1526 0010 002C     	 cmp r4,#0
 1527 0012 0AD0     	 beq .L186
 1528 0014 E024     	 mov r4,#224
 1529 0016 6400     	 lsl r4,r4,#1
 1530 0018 1459     	 ldr r4,[r2,r4]
 1531 001a 0822     	 mov r2,#8
 1532              	.L188:
 1533 001c 0125     	 mov r5,#1
 1534 001e 013A     	 sub r2,r2,#1
 1535 0020 2540     	 and r5,r4
 1536 0022 5B19     	 add r3,r3,r5
 1537 0024 6408     	 lsr r4,r4,#1
 1538 0026 002A     	 cmp r2,#0
 1539 0028 F8D1     	 bne .L188
 1540              	.L186:
 1541 002a 0129     	 cmp r1,#1
 1542 002c 01D0     	 beq .L196
 1543 002e 0121     	 mov r1,#1
 1544 0030 E9E7     	 b .L189
 1545              	.L196:
 1546 0032 181C     	 mov r0,r3
 1547              	 
 1548 0034 30BD     	 pop {r4,r5,pc}
 1550              	 .section .text.XMC_VADC_GROUP_QueueInit,"ax",%progbits
 1551              	 .align 1
 1552              	 .global XMC_VADC_GROUP_QueueInit
 1553              	 .code 16
 1554              	 .thumb_func
 1556              	XMC_VADC_GROUP_QueueInit:
 1557 0000 70B5     	 push {r4,r5,r6,lr}
 1558 0002 041C     	 mov r4,r0
 1559 0004 0325     	 mov r5,#3
 1560 0006 0834     	 add r4,r4,#8
 1561 0008 E26F     	 ldr r2,[r4,#124]
 1562 000a 134B     	 ldr r3,.L203
 1563 000c 0E78     	 ldrb r6,[r1]
 1564 000e 1340     	 and r3,r2
 1565 0010 E367     	 str r3,[r4,#124]
 1566 0012 E36F     	 ldr r3,[r4,#124]
 1567 0014 AB43     	 bic r3,r5
 1568 0016 1A1C     	 mov r2,r3
 1569 0018 3307     	 lsl r3,r6,#28
 1570 001a 9B0F     	 lsr r3,r3,#30
 1571 001c 1343     	 orr r3,r2
 1572 001e 321C     	 mov r2,r6
 1573 0020 2A40     	 and r2,r5
 1574 0022 01D0     	 beq .L198
 1575 0024 0535     	 add r5,r5,#5
 1576 0026 2B43     	 orr r3,r5
 1577              	.L198:
 1578 0028 E367     	 str r3,[r4,#124]
 1579 002a 4D68     	 ldr r5,[r1,#4]
 1580 002c 0B4B     	 ldr r3,.L203+4
 1581 002e FC30     	 add r0,r0,#252
 1582 0030 2B43     	 orr r3,r5
 1583 0032 4360     	 str r3,[r0,#4]
 1584 0034 8B68     	 ldr r3,[r1,#8]
 1585 0036 0121     	 mov r1,#1
 1586 0038 0B43     	 orr r3,r1
 1587 003a 8360     	 str r3,[r0,#8]
 1588 003c 022A     	 cmp r2,#2
 1589 003e 04D1     	 bne .L199
 1590 0040 8022     	 mov r2,#128
 1591 0042 8368     	 ldr r3,[r0,#8]
 1592 0044 5202     	 lsl r2,r2,#9
 1593 0046 1343     	 orr r3,r2
 1594 0048 8360     	 str r3,[r0,#8]
 1595              	.L199:
 1596 004a 8022     	 mov r2,#128
 1597 004c E36F     	 ldr r3,[r4,#124]
 1598 004e 5204     	 lsl r2,r2,#17
 1599 0050 1343     	 orr r3,r2
 1600 0052 E367     	 str r3,[r4,#124]
 1601              	 
 1602 0054 70BD     	 pop {r4,r5,r6,pc}
 1603              	.L204:
 1604 0056 C046     	 .align 2
 1605              	.L203:
 1606 0058 FFFFFFFE 	 .word -16777217
 1607 005c 00808080 	 .word -2139062272
 1609              	 .section .text.XMC_VADC_GROUP_QueueSelectTrigger,"ax",%progbits
 1610              	 .align 1
 1611              	 .global XMC_VADC_GROUP_QueueSelectTrigger
 1612              	 .code 16
 1613              	 .thumb_func
 1615              	XMC_VADC_GROUP_QueueSelectTrigger:
 1616 0000 FC30     	 add r0,r0,#252
 1617 0002 4268     	 ldr r2,[r0,#4]
 1618 0004 044B     	 ldr r3,.L206
 1619 0006 0902     	 lsl r1,r1,#8
 1620 0008 1340     	 and r3,r2
 1621 000a 8022     	 mov r2,#128
 1622 000c 1202     	 lsl r2,r2,#8
 1623 000e 1343     	 orr r3,r2
 1624 0010 1943     	 orr r1,r3
 1625 0012 4160     	 str r1,[r0,#4]
 1626              	 
 1627 0014 7047     	 bx lr
 1628              	.L207:
 1629 0016 C046     	 .align 2
 1630              	.L206:
 1631 0018 FFF0FFFF 	 .word -3841
 1633              	 .section .text.XMC_VADC_GROUP_QueueSelectTriggerEdge,"ax",%progbits
 1634              	 .align 1
 1635              	 .global XMC_VADC_GROUP_QueueSelectTriggerEdge
 1636              	 .code 16
 1637              	 .thumb_func
 1639              	XMC_VADC_GROUP_QueueSelectTriggerEdge:
 1640 0000 FC30     	 add r0,r0,#252
 1641 0002 4268     	 ldr r2,[r0,#4]
 1642 0004 044B     	 ldr r3,.L209
 1643 0006 4903     	 lsl r1,r1,#13
 1644 0008 1340     	 and r3,r2
 1645 000a 8022     	 mov r2,#128
 1646 000c 1202     	 lsl r2,r2,#8
 1647 000e 1343     	 orr r3,r2
 1648 0010 1943     	 orr r1,r3
 1649 0012 4160     	 str r1,[r0,#4]
 1650              	 
 1651 0014 7047     	 bx lr
 1652              	.L210:
 1653 0016 C046     	 .align 2
 1654              	.L209:
 1655 0018 FF9FFFFF 	 .word -24577
 1657              	 .section .text.XMC_VADC_GROUP_QueueSelectGating,"ax",%progbits
 1658              	 .align 1
 1659              	 .global XMC_VADC_GROUP_QueueSelectGating
 1660              	 .code 16
 1661              	 .thumb_func
 1663              	XMC_VADC_GROUP_QueueSelectGating:
 1664 0000 FC30     	 add r0,r0,#252
 1665 0002 4268     	 ldr r2,[r0,#4]
 1666 0004 044B     	 ldr r3,.L212
 1667 0006 0904     	 lsl r1,r1,#16
 1668 0008 1340     	 and r3,r2
 1669 000a 8022     	 mov r2,#128
 1670 000c 1204     	 lsl r2,r2,#16
 1671 000e 1343     	 orr r3,r2
 1672 0010 1943     	 orr r1,r3
 1673 0012 4160     	 str r1,[r0,#4]
 1674              	 
 1675 0014 7047     	 bx lr
 1676              	.L213:
 1677 0016 C046     	 .align 2
 1678              	.L212:
 1679 0018 FFFFF0FF 	 .word -983041
 1681              	 .section .text.XMC_VADC_GROUP_QueueGetLength,"ax",%progbits
 1682              	 .align 1
 1683              	 .global XMC_VADC_GROUP_QueueGetLength
 1684              	 .code 16
 1685              	 .thumb_func
 1687              	XMC_VADC_GROUP_QueueGetLength:
 1688 0000 031C     	 mov r3,r0
 1689 0002 FC33     	 add r3,r3,#252
 1690 0004 D968     	 ldr r1,[r3,#12]
 1691 0006 0020     	 mov r0,#0
 1692 0008 5A69     	 ldr r2,[r3,#20]
 1693 000a 8B06     	 lsl r3,r1,#26
 1694 000c 03D4     	 bmi .L215
 1695 000e 0F23     	 mov r3,#15
 1696 0010 1940     	 and r1,r3
 1697 0012 081C     	 mov r0,r1
 1698 0014 0130     	 add r0,r0,#1
 1699              	.L215:
 1700 0016 D305     	 lsl r3,r2,#23
 1701 0018 DB0F     	 lsr r3,r3,#31
 1702 001a C018     	 add r0,r0,r3
 1703              	 
 1704 001c 7047     	 bx lr
 1706              	 .section .text.XMC_VADC_GROUP_QueueAbortSequence,"ax",%progbits
 1707              	 .align 1
 1708              	 .global XMC_VADC_GROUP_QueueAbortSequence
 1709              	 .code 16
 1710              	 .thumb_func
 1712              	XMC_VADC_GROUP_QueueAbortSequence:
 1713 0000 70B5     	 push {r4,r5,r6,lr}
 1714 0002 041C     	 mov r4,r0
 1715 0004 0D4B     	 ldr r3,.L223
 1716 0006 FC34     	 add r4,r4,#252
 1717 0008 6568     	 ldr r5,[r4,#4]
 1718 000a 0830     	 add r0,r0,#8
 1719 000c 6360     	 str r3,[r4,#4]
 1720 000e C26F     	 ldr r2,[r0,#124]
 1721 0010 0B49     	 ldr r1,.L223+4
 1722 0012 C66F     	 ldr r6,[r0,#124]
 1723 0014 D201     	 lsl r2,r2,#7
 1724 0016 3140     	 and r1,r6
 1725 0018 8026     	 mov r6,#128
 1726 001a C167     	 str r1,[r0,#124]
 1727 001c A168     	 ldr r1,[r4,#8]
 1728 001e F600     	 lsl r6,r6,#3
 1729 0020 3143     	 orr r1,r6
 1730 0022 D20F     	 lsr r2,r2,#31
 1731 0024 A160     	 str r1,[r4,#8]
 1732              	.L221:
 1733 0026 E168     	 ldr r1,[r4,#12]
 1734 0028 8906     	 lsl r1,r1,#26
 1735 002a FCD5     	 bpl .L221
 1736 002c C16F     	 ldr r1,[r0,#124]
 1737 002e 1206     	 lsl r2,r2,#24
 1738 0030 2B43     	 orr r3,r5
 1739 0032 0A43     	 orr r2,r1
 1740 0034 C267     	 str r2,[r0,#124]
 1741              	 
 1742 0036 6360     	 str r3,[r4,#4]
 1743 0038 70BD     	 pop {r4,r5,r6,pc}
 1744              	.L224:
 1745 003a C046     	 .align 2
 1746              	.L223:
 1747 003c 00808080 	 .word -2139062272
 1748 0040 FFFFFFFE 	 .word -16777217
 1750              	 .section .text.XMC_VADC_GROUP_QueueRemoveChannel,"ax",%progbits
 1751              	 .align 1
 1752              	 .global XMC_VADC_GROUP_QueueRemoveChannel
 1753              	 .code 16
 1754              	 .thumb_func
 1756              	XMC_VADC_GROUP_QueueRemoveChannel:
 1757 0000 F0B5     	 push {r4,r5,r6,r7,lr}
 1758 0002 041C     	 mov r4,r0
 1759 0004 051C     	 mov r5,r0
 1760 0006 FC34     	 add r4,r4,#252
 1761 0008 6368     	 ldr r3,[r4,#4]
 1762 000a 85B0     	 sub sp,sp,#20
 1763 000c 0193     	 str r3,[sp,#4]
 1764 000e 144B     	 ldr r3,.L231
 1765 0010 0835     	 add r5,r5,#8
 1766 0012 6360     	 str r3,[r4,#4]
 1767 0014 EB6F     	 ldr r3,[r5,#124]
 1768 0016 EA6F     	 ldr r2,[r5,#124]
 1769 0018 DB01     	 lsl r3,r3,#7
 1770 001a DB0F     	 lsr r3,r3,#31
 1771 001c 0293     	 str r3,[sp,#8]
 1772 001e 114B     	 ldr r3,.L231+4
 1773 0020 061C     	 mov r6,r0
 1774 0022 1340     	 and r3,r2
 1775 0024 EB67     	 str r3,[r5,#124]
 1776 0026 FFF7FEFF 	 bl XMC_VADC_GROUP_QueueGetLength
 1777 002a 0D4B     	 ldr r3,.L231
 1778 002c 071E     	 sub r7,r0,#0
 1779 002e 0393     	 str r3,[sp,#12]
 1780 0030 0AD1     	 bne .L226
 1781              	.L229:
 1782 0032 029A     	 ldr r2,[sp,#8]
 1783 0034 EB6F     	 ldr r3,[r5,#124]
 1784 0036 1206     	 lsl r2,r2,#24
 1785 0038 1343     	 orr r3,r2
 1786 003a EB67     	 str r3,[r5,#124]
 1787 003c 019A     	 ldr r2,[sp,#4]
 1788 003e 039B     	 ldr r3,[sp,#12]
 1789 0040 1343     	 orr r3,r2
 1790 0042 6360     	 str r3,[r4,#4]
 1791 0044 05B0     	 add sp,sp,#20
 1792              	 
 1793 0046 F0BD     	 pop {r4,r5,r6,r7,pc}
 1794              	.L226:
 1795 0048 8022     	 mov r2,#128
 1796 004a A368     	 ldr r3,[r4,#8]
 1797 004c 5200     	 lsl r2,r2,#1
 1798 004e 1343     	 orr r3,r2
 1799 0050 A360     	 str r3,[r4,#8]
 1800              	.L228:
 1801 0052 301C     	 mov r0,r6
 1802 0054 FFF7FEFF 	 bl XMC_VADC_GROUP_QueueGetLength
 1803 0058 B842     	 cmp r0,r7
 1804 005a FAD0     	 beq .L228
 1805 005c E9E7     	 b .L229
 1806              	.L232:
 1807 005e C046     	 .align 2
 1808              	.L231:
 1809 0060 00808080 	 .word -2139062272
 1810 0064 FFFFFFFE 	 .word -16777217
 1812              	 .section .text.XMC_VADC_GROUP_QueueGetNextChannel,"ax",%progbits
 1813              	 .align 1
 1814              	 .global XMC_VADC_GROUP_QueueGetNextChannel
 1815              	 .code 16
 1816              	 .thumb_func
 1818              	XMC_VADC_GROUP_QueueGetNextChannel:
 1819 0000 8023     	 mov r3,#128
 1820 0002 FC30     	 add r0,r0,#252
 1821 0004 4269     	 ldr r2,[r0,#20]
 1822 0006 5B00     	 lsl r3,r3,#1
 1823 0008 1A42     	 tst r2,r3
 1824 000a 01D0     	 beq .L234
 1825 000c 4069     	 ldr r0,[r0,#20]
 1826 000e 03E0     	 b .L237
 1827              	.L234:
 1828 0010 0269     	 ldr r2,[r0,#16]
 1829 0012 1A42     	 tst r2,r3
 1830 0014 03D0     	 beq .L236
 1831 0016 0069     	 ldr r0,[r0,#16]
 1832              	.L237:
 1833 0018 1F23     	 mov r3,#31
 1834 001a 1840     	 and r0,r3
 1835 001c 01E0     	 b .L235
 1836              	.L236:
 1837 001e 0120     	 mov r0,#1
 1838 0020 4042     	 neg r0,r0
 1839              	.L235:
 1840              	 
 1841 0022 7047     	 bx lr
 1843              	 .section .text.XMC_VADC_GROUP_QueueGetInterruptedChannel,"ax",%progbits
 1844              	 .align 1
 1845              	 .global XMC_VADC_GROUP_QueueGetInterruptedChannel
 1846              	 .code 16
 1847              	 .thumb_func
 1849              	XMC_VADC_GROUP_QueueGetInterruptedChannel:
 1850 0000 FC30     	 add r0,r0,#252
 1851 0002 4369     	 ldr r3,[r0,#20]
 1852 0004 DB05     	 lsl r3,r3,#23
 1853 0006 03D5     	 bpl .L240
 1854 0008 1F23     	 mov r3,#31
 1855 000a 4069     	 ldr r0,[r0,#20]
 1856 000c 1840     	 and r0,r3
 1857 000e 01E0     	 b .L239
 1858              	.L240:
 1859 0010 0120     	 mov r0,#1
 1860 0012 4042     	 neg r0,r0
 1861              	.L239:
 1862              	 
 1863 0014 7047     	 bx lr
 1865              	 .section .text.XMC_VADC_GROUP_QueueSetReqSrcEventInterruptNode,"ax",%progbits
 1866              	 .align 1
 1867              	 .global XMC_VADC_GROUP_QueueSetReqSrcEventInterruptNode
 1868              	 .code 16
 1869              	 .thumb_func
 1871              	XMC_VADC_GROUP_QueueSetReqSrcEventInterruptNode:
 1872 0000 E022     	 mov r2,#224
 1873 0002 10B5     	 push {r4,lr}
 1874 0004 0F24     	 mov r4,#15
 1875 0006 5200     	 lsl r2,r2,#1
 1876 0008 8358     	 ldr r3,[r0,r2]
 1877              	 
 1878 000a A343     	 bic r3,r4
 1879 000c 1943     	 orr r1,r3
 1880 000e 8150     	 str r1,[r0,r2]
 1881 0010 10BD     	 pop {r4,pc}
 1883              	 .section .text.XMC_VADC_GROUP_ChannelInit,"ax",%progbits
 1884              	 .align 1
 1885              	 .global XMC_VADC_GROUP_ChannelInit
 1886              	 .code 16
 1887              	 .thumb_func
 1889              	XMC_VADC_GROUP_ChannelInit:
 1890 0000 70B5     	 push {r4,r5,r6,lr}
 1891 0002 0124     	 mov r4,#1
 1892 0004 051C     	 mov r5,r0
 1893 0006 8C40     	 lsl r4,r4,r1
 1894 0008 8835     	 add r5,r5,#136
 1895 000a 2B68     	 ldr r3,[r5]
 1896 000c A343     	 bic r3,r4
 1897 000e 147B     	 ldrb r4,[r2,#12]
 1898 0010 8C40     	 lsl r4,r4,r1
 1899 0012 2343     	 orr r3,r4
 1900 0014 2B60     	 str r3,[r5]
 1901 0016 537B     	 ldrb r3,[r2,#13]
 1902 0018 7F2B     	 cmp r3,#127
 1903 001a 17D8     	 bhi .L243
 1904 001c 031C     	 mov r3,r0
 1905 001e B033     	 add r3,r3,#176
 1906 0020 0129     	 cmp r1,#1
 1907 0022 05D1     	 bne .L244
 1908 0024 1D68     	 ldr r5,[r3]
 1909 0026 114C     	 ldr r4,.L247
 1910 0028 0826     	 mov r6,#8
 1911 002a 2C40     	 and r4,r5
 1912 002c 1C60     	 str r4,[r3]
 1913 002e 07E0     	 b .L245
 1914              	.L244:
 1915 0030 0026     	 mov r6,#0
 1916 0032 B142     	 cmp r1,r6
 1917 0034 04D1     	 bne .L245
 1918 0036 1F25     	 mov r5,#31
 1919 0038 0E1C     	 mov r6,r1
 1920 003a 1C68     	 ldr r4,[r3]
 1921 003c AC43     	 bic r4,r5
 1922 003e 1C60     	 str r4,[r3]
 1923              	.L245:
 1924 0040 0D24     	 mov r4,#13
 1925 0042 1457     	 ldrsb r4,[r2,r4]
 1926 0044 1D68     	 ldr r5,[r3]
 1927 0046 B440     	 lsl r4,r4,r6
 1928 0048 2C43     	 orr r4,r5
 1929 004a 1C60     	 str r4,[r3]
 1930              	.L243:
 1931 004c 041C     	 mov r4,r0
 1932 004e C834     	 add r4,r4,#200
 1933 0050 2368     	 ldr r3,[r4]
 1934 0052 5568     	 ldr r5,[r2,#4]
 1935 0054 8031     	 add r1,r1,#128
 1936 0056 2B43     	 orr r3,r5
 1937 0058 2360     	 str r3,[r4]
 1938 005a 9568     	 ldr r5,[r2,#8]
 1939 005c A368     	 ldr r3,[r4,#8]
 1940 005e 8900     	 lsl r1,r1,#2
 1941 0060 2B43     	 orr r3,r5
 1942 0062 A360     	 str r3,[r4,#8]
 1943 0064 1368     	 ldr r3,[r2]
 1944              	 
 1945 0066 0B50     	 str r3,[r1,r0]
 1946 0068 70BD     	 pop {r4,r5,r6,pc}
 1947              	.L248:
 1948 006a C046     	 .align 2
 1949              	.L247:
 1950 006c FFE0FFFF 	 .word -7937
 1952              	 .section .text.XMC_VADC_GROUP_ChannelIsResultOutOfBounds,"ax",%progbits
 1953              	 .align 1
 1954              	 .global XMC_VADC_GROUP_ChannelIsResultOutOfBounds
 1955              	 .code 16
 1956              	 .thumb_func
 1958              	XMC_VADC_GROUP_ChannelIsResultOutOfBounds:
 1959 0000 0B1C     	 mov r3,r1
 1960 0002 C022     	 mov r2,#192
 1961 0004 8033     	 add r3,r3,#128
 1962 0006 9B00     	 lsl r3,r3,#2
 1963 0008 1B58     	 ldr r3,[r3,r0]
 1964 000a 5200     	 lsl r2,r2,#1
 1965 000c 9B05     	 lsl r3,r3,#22
 1966 000e 9B0F     	 lsr r3,r3,#30
 1967 0010 013B     	 sub r3,r3,#1
 1968 0012 8258     	 ldr r2,[r0,r2]
 1969 0014 0020     	 mov r0,#0
 1970 0016 012B     	 cmp r3,#1
 1971 0018 06D8     	 bhi .L250
 1972 001a 0123     	 mov r3,#1
 1973 001c 8B40     	 lsl r3,r3,r1
 1974 001e 1A40     	 and r2,r3
 1975 0020 101C     	 mov r0,r2
 1976 0022 411E     	 sub r1,r0,#1
 1977 0024 8841     	 sbc r0,r0,r1
 1978 0026 C0B2     	 uxtb r0,r0
 1979              	.L250:
 1980              	 
 1981 0028 7047     	 bx lr
 1983              	 .section .text.XMC_VADC_GROUP_ChannelSetInputReference,"ax",%progbits
 1984              	 .align 1
 1985              	 .global XMC_VADC_GROUP_ChannelSetInputReference
 1986              	 .code 16
 1987              	 .thumb_func
 1989              	XMC_VADC_GROUP_ChannelSetInputReference:
 1990 0000 8900     	 lsl r1,r1,#2
 1991 0002 4118     	 add r1,r0,r1
 1992 0004 8020     	 mov r0,#128
 1993 0006 10B5     	 push {r4,lr}
 1994 0008 8000     	 lsl r0,r0,#2
 1995 000a 0C58     	 ldr r4,[r1,r0]
 1996 000c 024B     	 ldr r3,.L253
 1997 000e D202     	 lsl r2,r2,#11
 1998 0010 2340     	 and r3,r4
 1999 0012 1A43     	 orr r2,r3
 2000 0014 0A50     	 str r2,[r1,r0]
 2001              	 
 2002 0016 10BD     	 pop {r4,pc}
 2003              	.L254:
 2004              	 .align 2
 2005              	.L253:
 2006 0018 FFF7FFFF 	 .word -2049
 2008              	 .section .text.XMC_VADC_GROUP_ChannelSetResultRegister,"ax",%progbits
 2009              	 .align 1
 2010              	 .global XMC_VADC_GROUP_ChannelSetResultRegister
 2011              	 .code 16
 2012              	 .thumb_func
 2014              	XMC_VADC_GROUP_ChannelSetResultRegister:
 2015 0000 8900     	 lsl r1,r1,#2
 2016 0002 4118     	 add r1,r0,r1
 2017 0004 8020     	 mov r0,#128
 2018 0006 10B5     	 push {r4,lr}
 2019 0008 8000     	 lsl r0,r0,#2
 2020 000a 0C58     	 ldr r4,[r1,r0]
 2021 000c 024B     	 ldr r3,.L256
 2022 000e 1204     	 lsl r2,r2,#16
 2023 0010 2340     	 and r3,r4
 2024 0012 1A43     	 orr r2,r3
 2025 0014 0A50     	 str r2,[r1,r0]
 2026              	 
 2027 0016 10BD     	 pop {r4,pc}
 2028              	.L257:
 2029              	 .align 2
 2030              	.L256:
 2031 0018 FFFFF0FF 	 .word -983041
 2033              	 .section .text.XMC_VADC_GROUP_ChannelSetIclass,"ax",%progbits
 2034              	 .align 1
 2035              	 .global XMC_VADC_GROUP_ChannelSetIclass
 2036              	 .code 16
 2037              	 .thumb_func
 2039              	XMC_VADC_GROUP_ChannelSetIclass:
 2040 0000 8900     	 lsl r1,r1,#2
 2041 0002 4118     	 add r1,r0,r1
 2042 0004 8020     	 mov r0,#128
 2043 0006 10B5     	 push {r4,lr}
 2044 0008 0324     	 mov r4,#3
 2045 000a 8000     	 lsl r0,r0,#2
 2046 000c 0B58     	 ldr r3,[r1,r0]
 2047              	 
 2048 000e A343     	 bic r3,r4
 2049 0010 1A43     	 orr r2,r3
 2050 0012 0A50     	 str r2,[r1,r0]
 2051 0014 10BD     	 pop {r4,pc}
 2053              	 .section .text.XMC_VADC_GROUP_ChannelGetResultRegister,"ax",%progbits
 2054              	 .align 1
 2055              	 .global XMC_VADC_GROUP_ChannelGetResultRegister
 2056              	 .code 16
 2057              	 .thumb_func
 2059              	XMC_VADC_GROUP_ChannelGetResultRegister:
 2060 0000 8031     	 add r1,r1,#128
 2061 0002 8900     	 lsl r1,r1,#2
 2062 0004 0858     	 ldr r0,[r1,r0]
 2063              	 
 2064 0006 0003     	 lsl r0,r0,#12
 2065 0008 000F     	 lsr r0,r0,#28
 2066 000a 7047     	 bx lr
 2068              	 .section .text.XMC_VADC_GROUP_ChannelTriggerEvent,"ax",%progbits
 2069              	 .align 1
 2070              	 .global XMC_VADC_GROUP_ChannelTriggerEvent
 2071              	 .code 16
 2072              	 .thumb_func
 2074              	XMC_VADC_GROUP_ChannelTriggerEvent:
 2075 0000 0122     	 mov r2,#1
 2076 0002 8A40     	 lsl r2,r2,r1
 2077 0004 10B5     	 push {r4,lr}
 2078 0006 C024     	 mov r4,#192
 2079 0008 111C     	 mov r1,r2
 2080 000a 6400     	 lsl r4,r4,#1
 2081 000c 0359     	 ldr r3,[r0,r4]
 2082              	 
 2083 000e 1943     	 orr r1,r3
 2084 0010 0151     	 str r1,[r0,r4]
 2085 0012 10BD     	 pop {r4,pc}
 2087              	 .section .text.XMC_VADC_GROUP_ChannelSetEventInterruptNode,"ax",%progbits
 2088              	 .align 1
 2089              	 .global XMC_VADC_GROUP_ChannelSetEventInterruptNode
 2090              	 .code 16
 2091              	 .thumb_func
 2093              	XMC_VADC_GROUP_ChannelSetEventInterruptNode:
 2094 0000 30B5     	 push {r4,r5,lr}
 2095 0002 0F25     	 mov r5,#15
 2096 0004 D024     	 mov r4,#208
 2097 0006 8900     	 lsl r1,r1,#2
 2098 0008 8D40     	 lsl r5,r5,r1
 2099 000a 8A40     	 lsl r2,r2,r1
 2100 000c 6400     	 lsl r4,r4,#1
 2101 000e 0359     	 ldr r3,[r0,r4]
 2102              	 
 2103 0010 AB43     	 bic r3,r5
 2104 0012 1343     	 orr r3,r2
 2105 0014 0351     	 str r3,[r0,r4]
 2106 0016 30BD     	 pop {r4,r5,pc}
 2108              	 .section .text.XMC_VADC_GROUP_ChannelTriggerEventGenCriteria,"ax",%progbits
 2109              	 .align 1
 2110              	 .global XMC_VADC_GROUP_ChannelTriggerEventGenCriteria
 2111              	 .code 16
 2112              	 .thumb_func
 2114              	XMC_VADC_GROUP_ChannelTriggerEventGenCriteria:
 2115 0000 8900     	 lsl r1,r1,#2
 2116 0002 4118     	 add r1,r0,r1
 2117 0004 8020     	 mov r0,#128
 2118 0006 10B5     	 push {r4,lr}
 2119 0008 8000     	 lsl r0,r0,#2
 2120 000a 0C58     	 ldr r4,[r1,r0]
 2121 000c 024B     	 ldr r3,.L263
 2122 000e 1202     	 lsl r2,r2,#8
 2123 0010 2340     	 and r3,r4
 2124 0012 1A43     	 orr r2,r3
 2125 0014 0A50     	 str r2,[r1,r0]
 2126              	 
 2127 0016 10BD     	 pop {r4,pc}
 2128              	.L264:
 2129              	 .align 2
 2130              	.L263:
 2131 0018 FFFCFFFF 	 .word -769
 2133              	 .section .text.XMC_VADC_GROUP_ChannelSetBoundarySelection,"ax",%progbits
 2134              	 .align 1
 2135              	 .global XMC_VADC_GROUP_ChannelSetBoundarySelection
 2136              	 .code 16
 2137              	 .thumb_func
 2139              	XMC_VADC_GROUP_ChannelSetBoundarySelection:
 2140 0000 30B5     	 push {r4,r5,lr}
 2141 0002 3025     	 mov r5,#48
 2142 0004 9540     	 lsl r5,r5,r2
 2143 0006 0432     	 add r2,r2,#4
 2144 0008 9340     	 lsl r3,r3,r2
 2145 000a 8900     	 lsl r1,r1,#2
 2146 000c 4118     	 add r1,r0,r1
 2147 000e 8020     	 mov r0,#128
 2148 0010 1A1C     	 mov r2,r3
 2149 0012 8000     	 lsl r0,r0,#2
 2150 0014 0C58     	 ldr r4,[r1,r0]
 2151              	 
 2152 0016 AC43     	 bic r4,r5
 2153 0018 0C50     	 str r4,[r1,r0]
 2154 001a 0C58     	 ldr r4,[r1,r0]
 2155 001c 2243     	 orr r2,r4
 2156 001e 0A50     	 str r2,[r1,r0]
 2157 0020 30BD     	 pop {r4,r5,pc}
 2159              	 .section .text.XMC_VADC_GROUP_AddResultToFifo,"ax",%progbits
 2160              	 .align 1
 2161              	 .global XMC_VADC_GROUP_AddResultToFifo
 2162              	 .code 16
 2163              	 .thumb_func
 2165              	XMC_VADC_GROUP_AddResultToFifo:
 2166 0000 A022     	 mov r2,#160
 2167 0002 8900     	 lsl r1,r1,#2
 2168 0004 4118     	 add r1,r0,r1
 2169 0006 9200     	 lsl r2,r2,#2
 2170 0008 8858     	 ldr r0,[r1,r2]
 2171 000a 034B     	 ldr r3,.L267
 2172              	 
 2173 000c 0340     	 and r3,r0
 2174 000e 8020     	 mov r0,#128
 2175 0010 8004     	 lsl r0,r0,#18
 2176 0012 0343     	 orr r3,r0
 2177 0014 8B50     	 str r3,[r1,r2]
 2178 0016 7047     	 bx lr
 2179              	.L268:
 2180              	 .align 2
 2181              	.L267:
 2182 0018 FFFFFFF9 	 .word -100663297
 2184              	 .section .text.XMC_VADC_GROUP_SetResultFastCompareValue,"ax",%progbits
 2185              	 .align 1
 2186              	 .global XMC_VADC_GROUP_SetResultFastCompareValue
 2187              	 .code 16
 2188              	 .thumb_func
 2190              	XMC_VADC_GROUP_SetResultFastCompareValue:
 2191 0000 8900     	 lsl r1,r1,#2
 2192 0002 4118     	 add r1,r0,r1
 2193 0004 C020     	 mov r0,#192
 2194 0006 8000     	 lsl r0,r0,#2
 2195 0008 0B58     	 ldr r3,[r1,r0]
 2196 000a 9200     	 lsl r2,r2,#2
 2197 000c 1B0C     	 lsr r3,r3,#16
 2198 000e 1B04     	 lsl r3,r3,#16
 2199 0010 1A43     	 orr r2,r3
 2200 0012 0A50     	 str r2,[r1,r0]
 2201              	 
 2202 0014 7047     	 bx lr
 2204              	 .section .text.XMC_VADC_GROUP_GetFastCompareResult,"ax",%progbits
 2205              	 .align 1
 2206              	 .global XMC_VADC_GROUP_GetFastCompareResult
 2207              	 .code 16
 2208              	 .thumb_func
 2210              	XMC_VADC_GROUP_GetFastCompareResult:
 2211 0000 C031     	 add r1,r1,#192
 2212 0002 8900     	 lsl r1,r1,#2
 2213 0004 0B58     	 ldr r3,[r1,r0]
 2214 0006 0220     	 mov r0,#2
 2215 0008 002B     	 cmp r3,#0
 2216 000a 01DA     	 bge .L271
 2217 000c 5B00     	 lsl r3,r3,#1
 2218 000e D80F     	 lsr r0,r3,#31
 2219              	.L271:
 2220              	 
 2221 0010 7047     	 bx lr
 2223              	 .section .text.XMC_VADC_GROUP_SetResultSubtractionValue,"ax",%progbits
 2224              	 .align 1
 2225              	 .global XMC_VADC_GROUP_SetResultSubtractionValue
 2226              	 .code 16
 2227              	 .thumb_func
 2229              	XMC_VADC_GROUP_SetResultSubtractionValue:
 2230 0000 C022     	 mov r2,#192
 2231 0002 9200     	 lsl r2,r2,#2
 2232 0004 8358     	 ldr r3,[r0,r2]
 2233              	 
 2234 0006 1B0C     	 lsr r3,r3,#16
 2235 0008 1B04     	 lsl r3,r3,#16
 2236 000a 1943     	 orr r1,r3
 2237 000c 8150     	 str r1,[r0,r2]
 2238 000e 7047     	 bx lr
 2240              	 .section .text.XMC_VADC_GROUP_SetResultInterruptNode,"ax",%progbits
 2241              	 .align 1
 2242              	 .global XMC_VADC_GROUP_SetResultInterruptNode
 2243              	 .code 16
 2244              	 .thumb_func
 2246              	XMC_VADC_GROUP_SetResultInterruptNode:
 2247 0000 30B5     	 push {r4,r5,lr}
 2248 0002 0729     	 cmp r1,#7
 2249 0004 03D8     	 bhi .L275
 2250 0006 D824     	 mov r4,#216
 2251 0008 6400     	 lsl r4,r4,#1
 2252 000a 0359     	 ldr r3,[r0,r4]
 2253 000c 04E0     	 b .L277
 2254              	.L275:
 2255 000e DA24     	 mov r4,#218
 2256 0010 064D     	 ldr r5,.L278
 2257 0012 6400     	 lsl r4,r4,#1
 2258 0014 0359     	 ldr r3,[r0,r4]
 2259 0016 4919     	 add r1,r1,r5
 2260              	.L277:
 2261 0018 8900     	 lsl r1,r1,#2
 2262 001a 0F25     	 mov r5,#15
 2263 001c 8A40     	 lsl r2,r2,r1
 2264 001e 8D40     	 lsl r5,r5,r1
 2265 0020 111C     	 mov r1,r2
 2266 0022 AB43     	 bic r3,r5
 2267 0024 1943     	 orr r1,r3
 2268 0026 0151     	 str r1,[r0,r4]
 2269              	 
 2270 0028 30BD     	 pop {r4,r5,pc}
 2271              	.L279:
 2272 002a C046     	 .align 2
 2273              	.L278:
 2274 002c F8FFFF3F 	 .word 1073741816
 2276              	 .section .text.XMC_VADC_GROUP_IsResultRegisterFifoHead,"ax",%progbits
 2277              	 .align 1
 2278              	 .global XMC_VADC_GROUP_IsResultRegisterFifoHead
 2279              	 .code 16
 2280              	 .thumb_func
 2282              	XMC_VADC_GROUP_IsResultRegisterFifoHead:
 2283 0000 A023     	 mov r3,#160
 2284 0002 8900     	 lsl r1,r1,#2
 2285 0004 4118     	 add r1,r0,r1
 2286 0006 9B00     	 lsl r3,r3,#2
 2287 0008 10B5     	 push {r4,lr}
 2288 000a CC58     	 ldr r4,[r1,r3]
 2289 000c 043B     	 sub r3,r3,#4
 2290 000e CA58     	 ldr r2,[r1,r3]
 2291 0010 C023     	 mov r3,#192
 2292 0012 DB04     	 lsl r3,r3,#19
 2293 0014 0020     	 mov r0,#0
 2294 0016 1C42     	 tst r4,r3
 2295 0018 03D1     	 bne .L281
 2296 001a 1340     	 and r3,r2
 2297 001c 581E     	 sub r0,r3,#1
 2298 001e 8341     	 sbc r3,r3,r0
 2299 0020 D8B2     	 uxtb r0,r3
 2300              	.L281:
 2301              	 
 2302 0022 10BD     	 pop {r4,pc}
 2304              	 .section .text.XMC_VADC_GROUP_GetResultFifoTail,"ax",%progbits
 2305              	 .align 1
 2306              	 .global XMC_VADC_GROUP_GetResultFifoTail
 2307              	 .code 16
 2308              	 .thumb_func
 2310              	XMC_VADC_GROUP_GetResultFifoTail:
 2311 0000 38B5     	 push {r3,r4,r5,lr}
 2312 0002 0C1C     	 mov r4,r1
 2313 0004 051C     	 mov r5,r0
 2314 0006 FFF7FEFF 	 bl XMC_VADC_GROUP_IsResultRegisterFifoHead
 2315 000a 431E     	 sub r3,r0,#1
 2316 000c 9841     	 sbc r0,r0,r3
 2317 000e 241A     	 sub r4,r4,r0
 2318 0010 0020     	 mov r0,#0
 2319 0012 8442     	 cmp r4,r0
 2320 0014 11D0     	 beq .L295
 2321 0016 201C     	 mov r0,r4
 2322              	.L286:
 2323 0018 0028     	 cmp r0,#0
 2324 001a 0DDB     	 blt .L298
 2325 001c 031C     	 mov r3,r0
 2326 001e A033     	 add r3,r3,#160
 2327 0020 9B00     	 lsl r3,r3,#2
 2328 0022 5A59     	 ldr r2,[r3,r5]
 2329 0024 C023     	 mov r3,#192
 2330 0026 DB04     	 lsl r3,r3,#19
 2331 0028 1A42     	 tst r2,r3
 2332 002a 03D0     	 beq .L287
 2333 002c 0028     	 cmp r0,#0
 2334 002e 04D0     	 beq .L295
 2335 0030 0138     	 sub r0,r0,#1
 2336 0032 F1E7     	 b .L286
 2337              	.L287:
 2338 0034 0130     	 add r0,r0,#1
 2339 0036 00E0     	 b .L295
 2340              	.L298:
 2341 0038 0020     	 mov r0,#0
 2342              	.L295:
 2343              	 
 2344 003a 38BD     	 pop {r3,r4,r5,pc}
 2346              	 .section .text.XMC_VADC_GROUP_GetResultFifoHead,"ax",%progbits
 2347              	 .align 1
 2348              	 .global XMC_VADC_GROUP_GetResultFifoHead
 2349              	 .code 16
 2350              	 .thumb_func
 2352              	XMC_VADC_GROUP_GetResultFifoHead:
 2353 0000 38B5     	 push {r3,r4,r5,lr}
 2354 0002 0C1C     	 mov r4,r1
 2355 0004 051C     	 mov r5,r0
 2356 0006 FFF7FEFF 	 bl XMC_VADC_GROUP_IsResultRegisterFifoHead
 2357 000a 211C     	 mov r1,r4
 2358 000c 0028     	 cmp r0,#0
 2359 000e 0CD1     	 bne .L300
 2360              	.L301:
 2361 0010 0F29     	 cmp r1,#15
 2362 0012 09D8     	 bhi .L307
 2363 0014 0B1C     	 mov r3,r1
 2364 0016 A033     	 add r3,r3,#160
 2365 0018 9B00     	 lsl r3,r3,#2
 2366 001a 5A59     	 ldr r2,[r3,r5]
 2367 001c C023     	 mov r3,#192
 2368 001e DB04     	 lsl r3,r3,#19
 2369 0020 1A42     	 tst r2,r3
 2370 0022 02D0     	 beq .L300
 2371 0024 0131     	 add r1,r1,#1
 2372 0026 F3E7     	 b .L301
 2373              	.L307:
 2374 0028 0F21     	 mov r1,#15
 2375              	.L300:
 2376 002a 081C     	 mov r0,r1
 2377              	 
 2378 002c 38BD     	 pop {r3,r4,r5,pc}
 2380              	 .ident "GCC: (GNU Tools for ARM Embedded Processors) 4.9.3 20141119 (release) [ARM/embedded-4_9-branch revision 218278]"
DEFINED SYMBOLS
                            *ABS*:00000000 xmc_vadc.c
    {standard input}:15     .text.XMC_VADC_GLOBAL_EnableModule:00000000 $t
    {standard input}:20     .text.XMC_VADC_GLOBAL_EnableModule:00000000 XMC_VADC_GLOBAL_EnableModule
    {standard input}:32     .text.XMC_VADC_GLOBAL_EnableModule:00000010 $d
    {standard input}:35     .text.XMC_VADC_GLOBAL_DisableModule:00000000 $t
    {standard input}:40     .text.XMC_VADC_GLOBAL_DisableModule:00000000 XMC_VADC_GLOBAL_DisableModule
    {standard input}:48     .text.XMC_VADC_GLOBAL_Init:00000000 $t
    {standard input}:53     .text.XMC_VADC_GLOBAL_Init:00000000 XMC_VADC_GLOBAL_Init
    {standard input}:85     .text.XMC_VADC_GLOBAL_InputClassInit:00000000 $t
    {standard input}:90     .text.XMC_VADC_GLOBAL_InputClassInit:00000000 XMC_VADC_GLOBAL_InputClassInit
    {standard input}:107    .text.XMC_VADC_GLOBAL_InputClassInit:00000014 $d
    {standard input}:111    .text.XMC_VADC_GLOBAL_StartupCalibration:00000000 $t
    {standard input}:116    .text.XMC_VADC_GLOBAL_StartupCalibration:00000000 XMC_VADC_GLOBAL_StartupCalibration
    {standard input}:179    .text.XMC_VADC_GLOBAL_StartupCalibration:00000050 $d
    {standard input}:183    .text.XMC_VADC_GLOBAL_SetBoundaries:00000000 $t
    {standard input}:188    .text.XMC_VADC_GLOBAL_SetBoundaries:00000000 XMC_VADC_GLOBAL_SetBoundaries
    {standard input}:197    .text.XMC_VADC_GLOBAL_SetIndividualBoundary:00000000 $t
    {standard input}:202    .text.XMC_VADC_GLOBAL_SetIndividualBoundary:00000000 XMC_VADC_GLOBAL_SetIndividualBoundary
    {standard input}:225    .text.XMC_VADC_GLOBAL_SetIndividualBoundary:00000020 $d
    {standard input}:228    .text.XMC_VADC_GLOBAL_SetCompareValue:00000000 $t
    {standard input}:233    .text.XMC_VADC_GLOBAL_SetCompareValue:00000000 XMC_VADC_GLOBAL_SetCompareValue
    {standard input}:248    .text.XMC_VADC_GLOBAL_GetCompareResult:00000000 $t
    {standard input}:253    .text.XMC_VADC_GLOBAL_GetCompareResult:00000000 XMC_VADC_GLOBAL_GetCompareResult
    {standard input}:267    .text.XMC_VADC_GLOBAL_BindGroupToEMux:00000000 $t
    {standard input}:272    .text.XMC_VADC_GLOBAL_BindGroupToEMux:00000000 XMC_VADC_GLOBAL_BindGroupToEMux
    {standard input}:294    .text.XMC_VADC_GLOBAL_SetResultEventInterruptNode:00000000 $t
    {standard input}:299    .text.XMC_VADC_GLOBAL_SetResultEventInterruptNode:00000000 XMC_VADC_GLOBAL_SetResultEventInterruptNode
    {standard input}:318    .text.XMC_VADC_GLOBAL_SetResultEventInterruptNode:0000001c $d
    {standard input}:321    .text.XMC_VADC_GLOBAL_BackgroundSetReqSrcEventInterruptNode:00000000 $t
    {standard input}:326    .text.XMC_VADC_GLOBAL_BackgroundSetReqSrcEventInterruptNode:00000000 XMC_VADC_GLOBAL_BackgroundSetReqSrcEventInterruptNode
    {standard input}:343    .text.XMC_VADC_GROUP_InputClassInit:00000000 $t
    {standard input}:348    .text.XMC_VADC_GROUP_InputClassInit:00000000 XMC_VADC_GROUP_InputClassInit
    {standard input}:388    .text.XMC_VADC_GROUP_Init:00000000 $t
    {standard input}:393    .text.XMC_VADC_GROUP_Init:00000000 XMC_VADC_GROUP_Init
    {standard input}:458    .text.XMC_VADC_GROUP_SetPowerMode:00000000 $t
    {standard input}:463    .text.XMC_VADC_GROUP_SetPowerMode:00000000 XMC_VADC_GROUP_SetPowerMode
    {standard input}:474    .text.XMC_VADC_GROUP_SetSyncSlave:00000000 $t
    {standard input}:479    .text.XMC_VADC_GROUP_SetSyncSlave:00000000 XMC_VADC_GROUP_SetSyncSlave
    {standard input}:494    .text.XMC_VADC_GROUP_SetSyncMaster:00000000 $t
    {standard input}:499    .text.XMC_VADC_GROUP_SetSyncMaster:00000000 XMC_VADC_GROUP_SetSyncMaster
    {standard input}:509    .text.XMC_VADC_GROUP_CheckSlaveReadiness:00000000 $t
    {standard input}:514    .text.XMC_VADC_GROUP_CheckSlaveReadiness:00000000 XMC_VADC_GROUP_CheckSlaveReadiness
    {standard input}:535    .text.XMC_VADC_GROUP_CheckSlaveReadiness:00000020 $d
    {standard input}:538    .text.XMC_VADC_GROUP_IgnoreSlaveReadiness:00000000 $t
    {standard input}:543    .text.XMC_VADC_GROUP_IgnoreSlaveReadiness:00000000 XMC_VADC_GROUP_IgnoreSlaveReadiness
    {standard input}:563    .text.XMC_VADC_GROUP_IgnoreSlaveReadiness:0000001c $d
    {standard input}:566    .text.XMC_VADC_GROUP_SetSyncSlaveReadySignal:00000000 $t
    {standard input}:571    .text.XMC_VADC_GROUP_SetSyncSlaveReadySignal:00000000 XMC_VADC_GROUP_SetSyncSlaveReadySignal
    {standard input}:588    .text.XMC_VADC_GROUP_EnableChannelSyncRequest:00000000 $t
    {standard input}:593    .text.XMC_VADC_GROUP_EnableChannelSyncRequest:00000000 XMC_VADC_GROUP_EnableChannelSyncRequest
    {standard input}:613    .text.XMC_VADC_GROUP_DisableChannelSyncRequest:00000000 $t
    {standard input}:618    .text.XMC_VADC_GROUP_DisableChannelSyncRequest:00000000 XMC_VADC_GROUP_DisableChannelSyncRequest
    {standard input}:638    .text.XMC_VADC_GROUP_DisableChannelSyncRequest:0000001c $d
    {standard input}:641    .text.XMC_VADC_GROUP_IsConverterBusy:00000000 $t
    {standard input}:646    .text.XMC_VADC_GROUP_IsConverterBusy:00000000 XMC_VADC_GROUP_IsConverterBusy
    {standard input}:655    .text.XMC_VADC_GROUP_SetBoundaries:00000000 $t
    {standard input}:660    .text.XMC_VADC_GROUP_SetBoundaries:00000000 XMC_VADC_GROUP_SetBoundaries
    {standard input}:675    .text.XMC_VADC_GROUP_SetBoundaries:00000014 $d
    {standard input}:678    .text.XMC_VADC_GROUP_SetIndividualBoundary:00000000 $t
    {standard input}:683    .text.XMC_VADC_GROUP_SetIndividualBoundary:00000000 XMC_VADC_GROUP_SetIndividualBoundary
    {standard input}:706    .text.XMC_VADC_GROUP_SetIndividualBoundary:00000020 $d
    {standard input}:709    .text.XMC_VADC_GROUP_TriggerServiceRequest:00000000 $t
    {standard input}:714    .text.XMC_VADC_GROUP_TriggerServiceRequest:00000000 XMC_VADC_GROUP_TriggerServiceRequest
    {standard input}:733    .text.XMC_VADC_GROUP_SetBoundaryEventInterruptNode:00000000 $t
    {standard input}:738    .text.XMC_VADC_GROUP_SetBoundaryEventInterruptNode:00000000 XMC_VADC_GROUP_SetBoundaryEventInterruptNode
    {standard input}:756    .text.XMC_VADC_GLOBAL_SHS_Init:00000000 $t
    {standard input}:761    .text.XMC_VADC_GLOBAL_SHS_Init:00000000 XMC_VADC_GLOBAL_SHS_Init
    {standard input}:780    .text.XMC_VADC_GLOBAL_SHS_EnableAcceleratedMode:00000000 $t
    {standard input}:785    .text.XMC_VADC_GLOBAL_SHS_EnableAcceleratedMode:00000000 XMC_VADC_GLOBAL_SHS_EnableAcceleratedMode
    {standard input}:806    .text.XMC_VADC_GLOBAL_SHS_DisableAcceleratedMode:00000000 $t
    {standard input}:811    .text.XMC_VADC_GLOBAL_SHS_DisableAcceleratedMode:00000000 XMC_VADC_GLOBAL_SHS_DisableAcceleratedMode
    {standard input}:832    .text.XMC_VADC_GLOBAL_SHS_SetShortSampleTime:00000000 $t
    {standard input}:837    .text.XMC_VADC_GLOBAL_SHS_SetShortSampleTime:00000000 XMC_VADC_GLOBAL_SHS_SetShortSampleTime
    {standard input}:861    .text.XMC_VADC_GLOBAL_SHS_SetShortSampleTime:00000020 $d
    {standard input}:864    .text.XMC_VADC_GLOBAL_SHS_SetGainFactor:00000000 $t
    {standard input}:869    .text.XMC_VADC_GLOBAL_SHS_SetGainFactor:00000000 XMC_VADC_GLOBAL_SHS_SetGainFactor
    {standard input}:897    .text.XMC_VADC_GLOBAL_SHS_EnableGainAndOffsetCalibrations:00000000 $t
    {standard input}:902    .text.XMC_VADC_GLOBAL_SHS_EnableGainAndOffsetCalibrations:00000000 XMC_VADC_GLOBAL_SHS_EnableGainAndOffsetCalibrations
    {standard input}:921    .text.XMC_VADC_GLOBAL_SHS_DisableGainAndOffsetCalibrations:00000000 $t
    {standard input}:926    .text.XMC_VADC_GLOBAL_SHS_DisableGainAndOffsetCalibrations:00000000 XMC_VADC_GLOBAL_SHS_DisableGainAndOffsetCalibrations
    {standard input}:946    .text.XMC_VADC_GLOBAL_SHS_GetOffsetCalibrationValue:00000000 $t
    {standard input}:951    .text.XMC_VADC_GLOBAL_SHS_GetOffsetCalibrationValue:00000000 XMC_VADC_GLOBAL_SHS_GetOffsetCalibrationValue
    {standard input}:973    .text.XMC_VADC_GLOBAL_SHS_SetOffsetCalibrationValue:00000000 $t
    {standard input}:978    .text.XMC_VADC_GLOBAL_SHS_SetOffsetCalibrationValue:00000000 XMC_VADC_GLOBAL_SHS_SetOffsetCalibrationValue
    {standard input}:1022   .text.XMC_VADC_GLOBAL_SHS_SetSigmaDeltaLoop:00000000 $t
    {standard input}:1027   .text.XMC_VADC_GLOBAL_SHS_SetSigmaDeltaLoop:00000000 XMC_VADC_GLOBAL_SHS_SetSigmaDeltaLoop
    {standard input}:1045   .text.XMC_VADC_GLOBAL_SHS_SetSigmaDeltaLoop:0000001c $d
    {standard input}:1048   .text.XMC_VADC_GROUP_ScanInit:00000000 $t
    {standard input}:1053   .text.XMC_VADC_GROUP_ScanInit:00000000 XMC_VADC_GROUP_ScanInit
    {standard input}:1104   .text.XMC_VADC_GROUP_ScanInit:00000058 $d
    {standard input}:1108   .text.XMC_VADC_GROUP_ScanSelectTrigger:00000000 $t
    {standard input}:1113   .text.XMC_VADC_GROUP_ScanSelectTrigger:00000000 XMC_VADC_GROUP_ScanSelectTrigger
    {standard input}:1129   .text.XMC_VADC_GROUP_ScanSelectTrigger:00000018 $d
    {standard input}:1132   .text.XMC_VADC_GROUP_ScanSelectTriggerEdge:00000000 $t
    {standard input}:1137   .text.XMC_VADC_GROUP_ScanSelectTriggerEdge:00000000 XMC_VADC_GROUP_ScanSelectTriggerEdge
    {standard input}:1153   .text.XMC_VADC_GROUP_ScanSelectTriggerEdge:00000018 $d
    {standard input}:1156   .text.XMC_VADC_GROUP_ScanSelectGating:00000000 $t
    {standard input}:1161   .text.XMC_VADC_GROUP_ScanSelectGating:00000000 XMC_VADC_GROUP_ScanSelectGating
    {standard input}:1177   .text.XMC_VADC_GROUP_ScanSelectGating:00000018 $d
    {standard input}:1180   .text.XMC_VADC_GROUP_ScanSequenceAbort:00000000 $t
    {standard input}:1185   .text.XMC_VADC_GROUP_ScanSequenceAbort:00000000 XMC_VADC_GROUP_ScanSequenceAbort
    {standard input}:1220   .text.XMC_VADC_GROUP_ScanSequenceAbort:0000003c $d
    {standard input}:1224   .text.XMC_VADC_GROUP_ScanGetNumChannelsPending:00000000 $t
    {standard input}:1229   .text.XMC_VADC_GROUP_ScanGetNumChannelsPending:00000000 XMC_VADC_GROUP_ScanGetNumChannelsPending
    {standard input}:1251   .text.XMC_VADC_GROUP_ScanSetReqSrcEventInterruptNode:00000000 $t
    {standard input}:1256   .text.XMC_VADC_GROUP_ScanSetReqSrcEventInterruptNode:00000000 XMC_VADC_GROUP_ScanSetReqSrcEventInterruptNode
    {standard input}:1270   .text.XMC_VADC_GROUP_ScanRemoveChannel:00000000 $t
    {standard input}:1275   .text.XMC_VADC_GROUP_ScanRemoveChannel:00000000 XMC_VADC_GROUP_ScanRemoveChannel
    {standard input}:1286   .text.XMC_VADC_GLOBAL_BackgroundInit:00000000 $t
    {standard input}:1291   .text.XMC_VADC_GLOBAL_BackgroundInit:00000000 XMC_VADC_GLOBAL_BackgroundInit
    {standard input}:1360   .text.XMC_VADC_GLOBAL_BackgroundInit:00000080 $d
    {standard input}:1367   .text.XMC_VADC_GLOBAL_BackgroundSelectTrigger:00000000 $t
    {standard input}:1372   .text.XMC_VADC_GLOBAL_BackgroundSelectTrigger:00000000 XMC_VADC_GLOBAL_BackgroundSelectTrigger
    {standard input}:1390   .text.XMC_VADC_GLOBAL_BackgroundSelectTrigger:0000001c $d
    {standard input}:1393   .text.XMC_VADC_GLOBAL_BackgroundSelectTriggerEdge:00000000 $t
    {standard input}:1398   .text.XMC_VADC_GLOBAL_BackgroundSelectTriggerEdge:00000000 XMC_VADC_GLOBAL_BackgroundSelectTriggerEdge
    {standard input}:1416   .text.XMC_VADC_GLOBAL_BackgroundSelectTriggerEdge:0000001c $d
    {standard input}:1419   .text.XMC_VADC_GLOBAL_BackgroundSelectGating:00000000 $t
    {standard input}:1424   .text.XMC_VADC_GLOBAL_BackgroundSelectGating:00000000 XMC_VADC_GLOBAL_BackgroundSelectGating
    {standard input}:1442   .text.XMC_VADC_GLOBAL_BackgroundSelectGating:0000001c $d
    {standard input}:1445   .text.XMC_VADC_GLOBAL_BackgroundAbortSequence:00000000 $t
    {standard input}:1450   .text.XMC_VADC_GLOBAL_BackgroundAbortSequence:00000000 XMC_VADC_GLOBAL_BackgroundAbortSequence
    {standard input}:1505   .text.XMC_VADC_GLOBAL_BackgroundAbortSequence:00000060 $d
    {standard input}:1511   .text.XMC_VADC_GLOBAL_BackgroundGetNumChannelsPending:00000000 $t
    {standard input}:1516   .text.XMC_VADC_GLOBAL_BackgroundGetNumChannelsPending:00000000 XMC_VADC_GLOBAL_BackgroundGetNumChannelsPending
    {standard input}:1551   .text.XMC_VADC_GROUP_QueueInit:00000000 $t
    {standard input}:1556   .text.XMC_VADC_GROUP_QueueInit:00000000 XMC_VADC_GROUP_QueueInit
    {standard input}:1606   .text.XMC_VADC_GROUP_QueueInit:00000058 $d
    {standard input}:1610   .text.XMC_VADC_GROUP_QueueSelectTrigger:00000000 $t
    {standard input}:1615   .text.XMC_VADC_GROUP_QueueSelectTrigger:00000000 XMC_VADC_GROUP_QueueSelectTrigger
    {standard input}:1631   .text.XMC_VADC_GROUP_QueueSelectTrigger:00000018 $d
    {standard input}:1634   .text.XMC_VADC_GROUP_QueueSelectTriggerEdge:00000000 $t
    {standard input}:1639   .text.XMC_VADC_GROUP_QueueSelectTriggerEdge:00000000 XMC_VADC_GROUP_QueueSelectTriggerEdge
    {standard input}:1655   .text.XMC_VADC_GROUP_QueueSelectTriggerEdge:00000018 $d
    {standard input}:1658   .text.XMC_VADC_GROUP_QueueSelectGating:00000000 $t
    {standard input}:1663   .text.XMC_VADC_GROUP_QueueSelectGating:00000000 XMC_VADC_GROUP_QueueSelectGating
    {standard input}:1679   .text.XMC_VADC_GROUP_QueueSelectGating:00000018 $d
    {standard input}:1682   .text.XMC_VADC_GROUP_QueueGetLength:00000000 $t
    {standard input}:1687   .text.XMC_VADC_GROUP_QueueGetLength:00000000 XMC_VADC_GROUP_QueueGetLength
    {standard input}:1707   .text.XMC_VADC_GROUP_QueueAbortSequence:00000000 $t
    {standard input}:1712   .text.XMC_VADC_GROUP_QueueAbortSequence:00000000 XMC_VADC_GROUP_QueueAbortSequence
    {standard input}:1747   .text.XMC_VADC_GROUP_QueueAbortSequence:0000003c $d
    {standard input}:1751   .text.XMC_VADC_GROUP_QueueRemoveChannel:00000000 $t
    {standard input}:1756   .text.XMC_VADC_GROUP_QueueRemoveChannel:00000000 XMC_VADC_GROUP_QueueRemoveChannel
    {standard input}:1809   .text.XMC_VADC_GROUP_QueueRemoveChannel:00000060 $d
    {standard input}:1813   .text.XMC_VADC_GROUP_QueueGetNextChannel:00000000 $t
    {standard input}:1818   .text.XMC_VADC_GROUP_QueueGetNextChannel:00000000 XMC_VADC_GROUP_QueueGetNextChannel
    {standard input}:1844   .text.XMC_VADC_GROUP_QueueGetInterruptedChannel:00000000 $t
    {standard input}:1849   .text.XMC_VADC_GROUP_QueueGetInterruptedChannel:00000000 XMC_VADC_GROUP_QueueGetInterruptedChannel
    {standard input}:1866   .text.XMC_VADC_GROUP_QueueSetReqSrcEventInterruptNode:00000000 $t
    {standard input}:1871   .text.XMC_VADC_GROUP_QueueSetReqSrcEventInterruptNode:00000000 XMC_VADC_GROUP_QueueSetReqSrcEventInterruptNode
    {standard input}:1884   .text.XMC_VADC_GROUP_ChannelInit:00000000 $t
    {standard input}:1889   .text.XMC_VADC_GROUP_ChannelInit:00000000 XMC_VADC_GROUP_ChannelInit
    {standard input}:1950   .text.XMC_VADC_GROUP_ChannelInit:0000006c $d
    {standard input}:1953   .text.XMC_VADC_GROUP_ChannelIsResultOutOfBounds:00000000 $t
    {standard input}:1958   .text.XMC_VADC_GROUP_ChannelIsResultOutOfBounds:00000000 XMC_VADC_GROUP_ChannelIsResultOutOfBounds
    {standard input}:1984   .text.XMC_VADC_GROUP_ChannelSetInputReference:00000000 $t
    {standard input}:1989   .text.XMC_VADC_GROUP_ChannelSetInputReference:00000000 XMC_VADC_GROUP_ChannelSetInputReference
    {standard input}:2006   .text.XMC_VADC_GROUP_ChannelSetInputReference:00000018 $d
    {standard input}:2009   .text.XMC_VADC_GROUP_ChannelSetResultRegister:00000000 $t
    {standard input}:2014   .text.XMC_VADC_GROUP_ChannelSetResultRegister:00000000 XMC_VADC_GROUP_ChannelSetResultRegister
    {standard input}:2031   .text.XMC_VADC_GROUP_ChannelSetResultRegister:00000018 $d
    {standard input}:2034   .text.XMC_VADC_GROUP_ChannelSetIclass:00000000 $t
    {standard input}:2039   .text.XMC_VADC_GROUP_ChannelSetIclass:00000000 XMC_VADC_GROUP_ChannelSetIclass
    {standard input}:2054   .text.XMC_VADC_GROUP_ChannelGetResultRegister:00000000 $t
    {standard input}:2059   .text.XMC_VADC_GROUP_ChannelGetResultRegister:00000000 XMC_VADC_GROUP_ChannelGetResultRegister
    {standard input}:2069   .text.XMC_VADC_GROUP_ChannelTriggerEvent:00000000 $t
    {standard input}:2074   .text.XMC_VADC_GROUP_ChannelTriggerEvent:00000000 XMC_VADC_GROUP_ChannelTriggerEvent
    {standard input}:2088   .text.XMC_VADC_GROUP_ChannelSetEventInterruptNode:00000000 $t
    {standard input}:2093   .text.XMC_VADC_GROUP_ChannelSetEventInterruptNode:00000000 XMC_VADC_GROUP_ChannelSetEventInterruptNode
    {standard input}:2109   .text.XMC_VADC_GROUP_ChannelTriggerEventGenCriteria:00000000 $t
    {standard input}:2114   .text.XMC_VADC_GROUP_ChannelTriggerEventGenCriteria:00000000 XMC_VADC_GROUP_ChannelTriggerEventGenCriteria
    {standard input}:2131   .text.XMC_VADC_GROUP_ChannelTriggerEventGenCriteria:00000018 $d
    {standard input}:2134   .text.XMC_VADC_GROUP_ChannelSetBoundarySelection:00000000 $t
    {standard input}:2139   .text.XMC_VADC_GROUP_ChannelSetBoundarySelection:00000000 XMC_VADC_GROUP_ChannelSetBoundarySelection
    {standard input}:2160   .text.XMC_VADC_GROUP_AddResultToFifo:00000000 $t
    {standard input}:2165   .text.XMC_VADC_GROUP_AddResultToFifo:00000000 XMC_VADC_GROUP_AddResultToFifo
    {standard input}:2182   .text.XMC_VADC_GROUP_AddResultToFifo:00000018 $d
    {standard input}:2185   .text.XMC_VADC_GROUP_SetResultFastCompareValue:00000000 $t
    {standard input}:2190   .text.XMC_VADC_GROUP_SetResultFastCompareValue:00000000 XMC_VADC_GROUP_SetResultFastCompareValue
    {standard input}:2205   .text.XMC_VADC_GROUP_GetFastCompareResult:00000000 $t
    {standard input}:2210   .text.XMC_VADC_GROUP_GetFastCompareResult:00000000 XMC_VADC_GROUP_GetFastCompareResult
    {standard input}:2224   .text.XMC_VADC_GROUP_SetResultSubtractionValue:00000000 $t
    {standard input}:2229   .text.XMC_VADC_GROUP_SetResultSubtractionValue:00000000 XMC_VADC_GROUP_SetResultSubtractionValue
    {standard input}:2241   .text.XMC_VADC_GROUP_SetResultInterruptNode:00000000 $t
    {standard input}:2246   .text.XMC_VADC_GROUP_SetResultInterruptNode:00000000 XMC_VADC_GROUP_SetResultInterruptNode
    {standard input}:2274   .text.XMC_VADC_GROUP_SetResultInterruptNode:0000002c $d
    {standard input}:2277   .text.XMC_VADC_GROUP_IsResultRegisterFifoHead:00000000 $t
    {standard input}:2282   .text.XMC_VADC_GROUP_IsResultRegisterFifoHead:00000000 XMC_VADC_GROUP_IsResultRegisterFifoHead
    {standard input}:2305   .text.XMC_VADC_GROUP_GetResultFifoTail:00000000 $t
    {standard input}:2310   .text.XMC_VADC_GROUP_GetResultFifoTail:00000000 XMC_VADC_GROUP_GetResultFifoTail
    {standard input}:2347   .text.XMC_VADC_GROUP_GetResultFifoHead:00000000 $t
    {standard input}:2352   .text.XMC_VADC_GROUP_GetResultFifoHead:00000000 XMC_VADC_GROUP_GetResultFifoHead

UNDEFINED SYMBOLS
XMC_SCU_CLOCK_UngatePeripheralClock
XMC_SCU_CLOCK_GatePeripheralClock
XMC_SCU_CLOCK_SetAdcClockSrc
